###############################################################################
#                                                                             #
# IAR ANSI C/C++ Compiler V5.20.0.50892/W32 for ARM     07/Oct/2009  13:03:47 #
# Copyright 1999-2008 IAR Systems AB.                                         #
#                                                                             #
#    Cpu mode     =  thumb                                                    #
#    Endian       =  little                                                   #
#    Source file  =  F:\CoLtd\Forth\MCU\STM32F10x\ST_Forth\Configuration_NVIC #
#                    .c                                                       #
#    Command line =  F:\CoLtd\Forth\MCU\STM32F10x\ST_Forth\Configuration_NVIC #
#                    .c -D VECT_TAB_FLASH -lC F:\CoLtd\Forth\MCU\STM32F10x\ST #
#                    _Forth\STM3210E-EVAL\List\ -o                            #
#                    F:\CoLtd\Forth\MCU\STM32F10x\ST_Forth\STM3210E-EVAL\Obj\ #
#                     --debug --endian=little --cpu=Cortex-M3 -e              #
#                    --char_is_signed --require_prototypes --fpu=None         #
#                    --dlib_config "C:\Program Files\IAR Systems\Embedded     #
#                    Workbench 5.0\ARM\INC\DLib_Config_Full.h" -I             #
#                    F:\CoLtd\Forth\MCU\STM32F10x\ST_Forth\ -I                #
#                    F:\CoLtd\Forth\MCU\STM32F10x\ST_Forth\library\inc\ -I    #
#                    "C:\Program Files\IAR Systems\Embedded Workbench         #
#                    5.0\ARM\INC\" -Ohz                                       #
#    List file    =  F:\CoLtd\Forth\MCU\STM32F10x\ST_Forth\STM3210E-EVAL\List #
#                    \Configuration_NVIC.lst                                  #
#    Object file  =  F:\CoLtd\Forth\MCU\STM32F10x\ST_Forth\STM3210E-EVAL\Obj\ #
#                    Configuration_NVIC.o                                     #
#                                                                             #
#                                                                             #
###############################################################################

F:\CoLtd\Forth\MCU\STM32F10x\ST_Forth\Configuration_NVIC.c
      1          #include "stm32f10x_lib.h"
      2          

   \                                 In section .data, align 1
      3          u8 PreemptionPriorityValue = 1;
   \                     PreemptionPriorityValue:
   \   00000000   01                 DC8 1
      4          
      5          void NVIC_Configuration(void);
      6          /*******************************************************************************
      7          * Function Name  : NVIC_Configuration
      8          * Description    : Configures Vector Table base location.
      9          * Input          : None
     10          * Output         : None
     11          * Return         : None
     12          *******************************************************************************/

   \                                 In section .text, align 4, keep-with-next
     13          void NVIC_Configuration(void)
     14          {
   \                     NVIC_Configuration:
   \   00000000   80B5               PUSH     {R7,LR}
     15              NVIC_InitTypeDef NVIC_InitStructure;
     16          #ifdef  VECT_TAB_RAM  
     17            /* Set the Vector Table base location at 0x20000000 */ 
     18            NVIC_SetVectorTable(NVIC_VectTab_RAM, 0x0); 
     19          #else  /* VECT_TAB_FLASH  */
     20            /* Set the Vector Table base location at 0x08000000 */ 
     21            NVIC_SetVectorTable(NVIC_VectTab_FLASH, 0x0);   
   \   00000002   0021               MOVS     R1,#+0
   \   00000004   4FF00060           MOV      R0,#+134217728
   \   00000008   ........           BL       NVIC_SetVectorTable
     22          #endif
     23          
     24            /* Configure one bit for preemption priority */
     25            NVIC_PriorityGroupConfig(NVIC_PriorityGroup_1);
   \   0000000C   4FF4C060           MOV      R0,#+1536
   \   00000010   ........           BL       NVIC_PriorityGroupConfig
     26          
     27            
     28            /* Enable the TIM2 gloabal Interrupt */
     29            NVIC_InitStructure.NVIC_IRQChannel = TIM2_IRQChannel;
   \   00000014   1C20               MOVS     R0,#+28
   \   00000016   8DF80000           STRB     R0,[SP, #+0]
     30            NVIC_InitStructure.NVIC_IRQChannelPreemptionPriority = 1;
   \   0000001A   0120               MOVS     R0,#+1
   \   0000001C   8DF80100           STRB     R0,[SP, #+1]
     31            NVIC_InitStructure.NVIC_IRQChannelSubPriority = 1;
   \   00000020   8DF80200           STRB     R0,[SP, #+2]
     32            NVIC_InitStructure.NVIC_IRQChannelCmd = ENABLE;
   \   00000024   8DF80300           STRB     R0,[SP, #+3]
     33            NVIC_Init(&NVIC_InitStructure); 
   \   00000028   00A8               ADD      R0,SP,#+0
   \   0000002A   ........           BL       NVIC_Init
     34            
     35              /* Enable the TIM3 gloabal Interrupt */
     36            NVIC_InitStructure.NVIC_IRQChannel = TIM3_IRQChannel;
   \   0000002E   1D20               MOVS     R0,#+29
   \   00000030   8DF80000           STRB     R0,[SP, #+0]
     37            NVIC_InitStructure.NVIC_IRQChannelPreemptionPriority = 1;
   \   00000034   0120               MOVS     R0,#+1
   \   00000036   8DF80100           STRB     R0,[SP, #+1]
     38            NVIC_InitStructure.NVIC_IRQChannelSubPriority = 2;
   \   0000003A   0220               MOVS     R0,#+2
   \   0000003C   8DF80200           STRB     R0,[SP, #+2]
     39            NVIC_InitStructure.NVIC_IRQChannelCmd = ENABLE;
   \   00000040   0120               MOVS     R0,#+1
   \   00000042   8DF80300           STRB     R0,[SP, #+3]
     40            NVIC_Init(&NVIC_InitStructure); 
   \   00000046   00A8               ADD      R0,SP,#+0
   \   00000048   ........           BL       NVIC_Init
     41            
     42            /* Enable the TIM4 gloabal Interrupt */
     43            NVIC_InitStructure.NVIC_IRQChannel = TIM4_IRQChannel;
   \   0000004C   1E20               MOVS     R0,#+30
   \   0000004E   8DF80000           STRB     R0,[SP, #+0]
     44            NVIC_InitStructure.NVIC_IRQChannelPreemptionPriority = 1;
   \   00000052   0120               MOVS     R0,#+1
   \   00000054   8DF80100           STRB     R0,[SP, #+1]
     45            NVIC_InitStructure.NVIC_IRQChannelSubPriority = 3;
   \   00000058   0320               MOVS     R0,#+3
   \   0000005A   8DF80200           STRB     R0,[SP, #+2]
     46            NVIC_InitStructure.NVIC_IRQChannelCmd = ENABLE;  
   \   0000005E   0120               MOVS     R0,#+1
   \   00000060   8DF80300           STRB     R0,[SP, #+3]
     47            NVIC_Init(&NVIC_InitStructure);   
   \   00000064   00A8               ADD      R0,SP,#+0
   \   00000066   ........           BL       NVIC_Init
     48          
     49            /* Enable the TIM5 gloabal Interrupt */
     50            NVIC_InitStructure.NVIC_IRQChannel = TIM5_IRQChannel;
   \   0000006A   3220               MOVS     R0,#+50
   \   0000006C   8DF80000           STRB     R0,[SP, #+0]
     51            NVIC_InitStructure.NVIC_IRQChannelPreemptionPriority = 1;
   \   00000070   0120               MOVS     R0,#+1
   \   00000072   8DF80100           STRB     R0,[SP, #+1]
     52            NVIC_InitStructure.NVIC_IRQChannelSubPriority = 4;
   \   00000076   0420               MOVS     R0,#+4
   \   00000078   8DF80200           STRB     R0,[SP, #+2]
     53            NVIC_InitStructure.NVIC_IRQChannelCmd = ENABLE;    
   \   0000007C   0120               MOVS     R0,#+1
   \   0000007E   8DF80300           STRB     R0,[SP, #+3]
     54            NVIC_Init(&NVIC_InitStructure);  
   \   00000082   00A8               ADD      R0,SP,#+0
   \   00000084   ........           BL       NVIC_Init
     55            
     56            
     57              /* Enable the USART1 Interrupt */
     58            NVIC_InitStructure.NVIC_IRQChannel = USART2_IRQChannel;
   \   00000088   2620               MOVS     R0,#+38
   \   0000008A   8DF80000           STRB     R0,[SP, #+0]
     59            NVIC_InitStructure.NVIC_IRQChannelPreemptionPriority = 1;
   \   0000008E   0120               MOVS     R0,#+1
   \   00000090   8DF80100           STRB     R0,[SP, #+1]
     60            NVIC_InitStructure.NVIC_IRQChannelSubPriority = 5;
   \   00000094   0520               MOVS     R0,#+5
   \   00000096   8DF80200           STRB     R0,[SP, #+2]
     61            NVIC_InitStructure.NVIC_IRQChannelCmd = ENABLE;
   \   0000009A   0120               MOVS     R0,#+1
   \   0000009C   8DF80300           STRB     R0,[SP, #+3]
     62            NVIC_Init(&NVIC_InitStructure);
   \   000000A0   00A8               ADD      R0,SP,#+0
   \   000000A2   ........           BL       NVIC_Init
     63            
     64            
     65            /* Enable the RTC Interrupt */
     66          //  NVIC_InitStructure.NVIC_IRQChannel = RTC_IRQChannel;
     67          //  NVIC_InitStructure.NVIC_IRQChannelPreemptionPriority = 1;
     68          //  NVIC_InitStructure.NVIC_IRQChannelSubPriority = 0;
     69          //  NVIC_InitStructure.NVIC_IRQChannelCmd = ENABLE;
     70          //  NVIC_Init(&NVIC_InitStructure);  
     71            
     72            
     73            /* Configure the SysTick Handler Priority: Preemption priority and subpriority */
     74            NVIC_SystemHandlerPriorityConfig(SystemHandler_SysTick, !PreemptionPriorityValue, 0);  
   \   000000A6   0548               LDR.N    R0,??NVIC_Configuration_0  ;; PreemptionPriorityValue
   \   000000A8   0078               LDRB     R0,[R0, #+0]
   \   000000AA   411E               SUBS     R1,R0,#+1
   \   000000AC   8941               SBCS     R1,R1,R1
   \   000000AE   C90F               LSRS     R1,R1,#+31
   \   000000B0   0022               MOVS     R2,#+0
   \   000000B2   0348               LDR.N    R0,??NVIC_Configuration_0+0x4  ;; 0x2c39a
   \   000000B4   ........           BL       NVIC_SystemHandlerPriorityConfig
     75          }
   \   000000B8   01BD               POP      {R0,PC}          ;; return
   \   000000BA   00BF               Nop      
   \                     ??NVIC_Configuration_0:
   \   000000BC   ........           DC32     PreemptionPriorityValue
   \   000000C0   9AC30200           DC32     0x2c39a

   Maximum stack usage in bytes:

     Function           .cstack
     --------           -------
     NVIC_Configuration      0


   Section sizes:

     Function/Label          Bytes
     --------------          -----
     PreemptionPriorityValue    1
     NVIC_Configuration       196

 
   1 byte  in section .data
 196 bytes in section .text
 
 196 bytes of CODE memory
   1 byte  of DATA memory

Errors: none
Warnings: none
