###############################################################################
#                                                                             #
# IAR ANSI C/C++ Compiler V5.20.0.50892/W32 for ARM     07/Oct/2009  13:03:52 #
# Copyright 1999-2008 IAR Systems AB.                                         #
#                                                                             #
#    Cpu mode     =  thumb                                                    #
#    Endian       =  little                                                   #
#    Source file  =  F:\CoLtd\Forth\MCU\STM32F10x\ST_Forth\STM32F10x.c        #
#    Command line =  F:\CoLtd\Forth\MCU\STM32F10x\ST_Forth\STM32F10x.c -D     #
#                    VECT_TAB_FLASH -lC F:\CoLtd\Forth\MCU\STM32F10x\ST_Forth #
#                    \STM3210E-EVAL\List\ -o F:\CoLtd\Forth\MCU\STM32F10x\ST_ #
#                    Forth\STM3210E-EVAL\Obj\ --debug --endian=little         #
#                    --cpu=Cortex-M3 -e --char_is_signed                      #
#                    --require_prototypes --fpu=None --dlib_config            #
#                    "C:\Program Files\IAR Systems\Embedded Workbench         #
#                    5.0\ARM\INC\DLib_Config_Full.h" -I                       #
#                    F:\CoLtd\Forth\MCU\STM32F10x\ST_Forth\ -I                #
#                    F:\CoLtd\Forth\MCU\STM32F10x\ST_Forth\library\inc\ -I    #
#                    "C:\Program Files\IAR Systems\Embedded Workbench         #
#                    5.0\ARM\INC\" -Ohz                                       #
#    List file    =  F:\CoLtd\Forth\MCU\STM32F10x\ST_Forth\STM3210E-EVAL\List #
#                    \STM32F10x.lst                                           #
#    Object file  =  F:\CoLtd\Forth\MCU\STM32F10x\ST_Forth\STM3210E-EVAL\Obj\ #
#                    STM32F10x.o                                              #
#                                                                             #
#                                                                             #
###############################################################################

F:\CoLtd\Forth\MCU\STM32F10x\ST_Forth\STM32F10x.c
      1          /******************** (C) COPYRIGHT 2008 STMicroelectronics ********************
      2          * File Name          : main.c
      3          * Author             : MCD Application Team
      4          * Version            : V2.0.3
      5          * Date               : 09/22/2008
      6          * Description        : Main program body.
      7          ********************************************************************************
      8          * THE PRESENT FIRMWARE WHICH IS FOR GUIDANCE ONLY AIMS AT PROVIDING CUSTOMERS
      9          * WITH CODING INFORMATION REGARDING THEIR PRODUCTS IN ORDER FOR THEM TO SAVE TIME.
     10          * AS A RESULT, STMICROELECTRONICS SHALL NOT BE HELD LIABLE FOR ANY DIRECT,
     11          * INDIRECT OR CONSEQUENTIAL DAMAGES WITH RESPECT TO ANY CLAIMS ARISING FROM THE
     12          * CONTENT OF SUCH FIRMWARE AND/OR THE USE MADE BY CUSTOMERS OF THE CODING
     13          * INFORMATION CONTAINED HEREIN IN CONNECTION WITH THEIR PRODUCTS.
     14          *******************************************************************************/
     15          
     16          /* Includes ------------------------------------------------------------------*/
     17          #include "stm32f10x.h"
     18          #include "platform_config.h"
     19          #include "fsmc_nor.h"
     20          
     21          
     22          /* Private typedef -----------------------------------------------------------*/
     23          /* Private define ------------------------------------------------------------*/
     24          #define BUFFER_SIZE        0x400
     25          #define WRITE_READ_ADDR    0x8000
     26          /* Private macro -------------------------------------------------------------*/
     27          /* Private variables ---------------------------------------------------------*/

   \                                 In section .bss, align 4
     28          vu32 TabAddr, MSPValue = 0;
   \                     TabAddr:
   \   00000000                      DS8 4

   \                                 In section .bss, align 4
   \                     MSPValue:
   \   00000000                      DS8 4

   \                                 In section .bss, align 1
     29          ErrorStatus HSEStartUpStatus;
   \                     HSEStartUpStatus:
   \   00000000                      DS8 1

   \                                 In section .bss, align 4
     30          u16 TxBuffer[BUFFER_SIZE];
   \                     TxBuffer:
   \   00000000                      DS8 2048

   \                                 In section .bss, align 4
     31          NOR_IDTypeDef NOR_ID;
   \                     NOR_ID:
   \   00000000                      DS8 8
     32          
     33          extern int clRed ;
     34          extern int clBlack;
     35          
     36          /* Private function prototypes -----------------------------------------------*/
     37          extern void RCC_Configuration(void);
     38          extern void NVIC_Configuration(void);
     39          extern void GPIO_Configuration(void);
     40          extern void DMA_Configuration(void);
     41          extern void SPI_Configuration(void);
     42          extern void RTC_Configuration(void);
     43          extern void  USART_Configuration(void);
     44          extern void Tim2_Configuration(void);
     45          extern void Tim3_Configuration(void);
     46          extern void Tim4_Configuration(void);
     47          extern void Tim5_Configuration(void);
     48          extern void RTC_Configuration(void);
     49          /* Private functions ---------------------------------------------------------*/
     50          void HardWare_Init(void);
     51          void LEDsSet (unsigned int State);
     52          
     53          void Fill_Buffer(u16 *pBuffer, u16 BufferLenght, u32 Offset);
     54          
     55          
     56          /*******************************************************************************
     57          * Function Name  : main
     58          * Description    : Main program.
     59          * Input          : None
     60          * Output         : None
     61          * Return         : None
     62          *******************************************************************************/

   \                                 In section .text, align 4, keep-with-next
     63          void HardWare_Init(void)
     64          {
   \                     HardWare_Init:
   \   00000000   10B5               PUSH     {R4,LR}
     65          
     66          #ifdef DEBUG
     67            debug();
     68          #endif
     69            /* Get main stack pointer value */
     70            MSPValue = __MRS_MSP(); /* should be 0x2000xxxx */
   \   00000002   ........           BL       __MRS_MSP
   \   00000006   2E49               LDR.N    R1,??HardWare_Init_0  ;; MSPValue
   \   00000008   0860               STR      R0,[R1, #+0]
     71              
     72            /* System Clocks Configuration */
     73            RCC_Configuration();   
   \   0000000A   ........           BL       RCC_Configuration
     74            
     75            
     76            
     77            
     78            GPIO_Configuration();  
   \   0000000E   ........           BL       GPIO_Configuration
     79           
     80            /* Write/read to/from FSMC SRAM memory  *************************************/
     81            /* Enable the FSMC Clock */
     82            RCC_AHBPeriphClockCmd(RCC_AHBPeriph_FSMC, ENABLE);
   \   00000012   0121               MOVS     R1,#+1
   \   00000014   4FF48070           MOV      R0,#+256
   \   00000018   ........           BL       RCC_AHBPeriphClockCmd
     83          
     84            /* Configure FSMC Bank1 NOR/SRAM2 */
     85          //  FSMC_NOR_Init();  
     86            
     87          //  FSMC_NOR_ReadID(&NOR_ID);
     88            
     89            /* Read NOR memory ID */
     90          //  FSMC_NOR_ReadID(&NOR_ID);
     91          
     92          //  FSMC_NOR_ReturnToReadMode();
     93          
     94            /* Erase the NOR memory block to write on */
     95          //  FSMC_NOR_EraseBlock(WRITE_READ_ADDR);
     96          
     97            /* Write data to FSMC NOR memory */
     98            /* Fill the buffer to send */
     99          //  Fill_Buffer(TxBuffer, BUFFER_SIZE, 0x3210);
    100          //  FSMC_NOR_WriteBuffer(TxBuffer, WRITE_READ_ADDR, BUFFER_SIZE);
    101              
    102              
    103            
    104            /* Turn on Leds connected to GPIO_LED Pin 6 and Pin 8 */
    105            GPIO_Write(GPIO_LED, GPIO_Pin_6 | GPIO_Pin_8);
   \   0000001C   294C               LDR.N    R4,??HardWare_Init_0+0x4  ;; 0x40011c00
   \   0000001E   4FF4A071           MOV      R1,#+320
   \   00000022   2000               MOVS     R0,R4
   \   00000024   ........           BL       GPIO_Write
    106            
    107              GPIO_SetBits(GPIOF,GPIO_Pin_7); // LED_Run On
   \   00000028   8021               MOVS     R1,#+128
   \   0000002A   2000               MOVS     R0,R4
   \   0000002C   ........           BL       GPIO_SetBits
    108              GPIO_ResetBits(GPIOF,GPIO_Pin_6); // LED_Busy Off
   \   00000030   4021               MOVS     R1,#+64
   \   00000032   2000               MOVS     R0,R4
   \   00000034   ........           BL       GPIO_ResetBits
    109             clRed=1;
   \   00000038   2348               LDR.N    R0,??HardWare_Init_0+0x8  ;; clRed
   \   0000003A   0121               MOVS     R1,#+1
   \   0000003C   0160               STR      R1,[R0, #+0]
    110             clBlack=0;  
   \   0000003E   2348               LDR.N    R0,??HardWare_Init_0+0xC  ;; clBlack
   \   00000040   0021               MOVS     R1,#+0
   \   00000042   0160               STR      R1,[R0, #+0]
    111              
    112              
    113            SPI_Configuration(); 
   \   00000044   ........           BL       SPI_Configuration
    114            DMA_Configuration();  
   \   00000048   ........           BL       DMA_Configuration
    115              /* SysTick end of count event each 1ms with input clock equal to 9MHz (HCLK/8, default) */
    116           // SysTick_SetReload(9000);
    117           SysTick_SetReload(10500); //AMIC 02/24
   \   0000004C   42F60410           MOVW     R0,#+10500
   \   00000050   ........           BL       SysTick_SetReload
    118          // SysTick_SetReload(10125); //
    119           //SysTick_SetReload(10312); //  
    120           // SysTick_SetReload(10406); // 
    121           //SysTick_SetReload(10453); // 
    122          // SysTick_SetReload(10476); // 
    123          // SysTick_SetReload(10488); // 
    124          // SysTick_SetReload(10494); //  
    125          // SysTick_SetReload(10497); //  
    126          // SysTick_SetReload(10498); //  
    127          // SysTick_SetReload(11500); //°{
    128            /* Enable SysTick interrupt */
    129            SysTick_ITConfig(ENABLE);
   \   00000054   0120               MOVS     R0,#+1
   \   00000056   ........           BL       SysTick_ITConfig
    130            SysTick_CounterCmd(SysTick_Counter_Enable);  
   \   0000005A   0120               MOVS     R0,#+1
   \   0000005C   ........           BL       SysTick_CounterCmd
    131            
    132            
    133            Tim2_Configuration();
   \   00000060   ........           BL       Tim2_Configuration
    134            Tim3_Configuration();  
   \   00000064   ........           BL       Tim3_Configuration
    135            Tim4_Configuration();  
   \   00000068   ........           BL       Tim4_Configuration
    136            Tim5_Configuration();    
   \   0000006C   ........           BL       Tim5_Configuration
    137            USART_Configuration(); 
   \   00000070   ........           BL       USART_Configuration
    138            RTC_Configuration();
   \   00000074   ........           BL       RTC_Configuration
    139            
    140            
    141              if (BKP_ReadBackupRegister(BKP_DR1) != 0xA5A5)
   \   00000078   4AF2A554           MOVW     R4,#+42405
   \   0000007C   0420               MOVS     R0,#+4
   \   0000007E   ........           BL       BKP_ReadBackupRegister
   \   00000082   A042               CMP      R0,R4
   \   00000084   06D0               BEQ.N    ??HardWare_Init_1
    142            {
    143              /* Backup data register value is not correct or not yet programmed (when
    144                 the first time the program is executed) */
    145              /* RTC Configuration */
    146              RTC_Configuration();
   \   00000086   ........           BL       RTC_Configuration
    147              /* Adjust time by values entred by the user on the hyperterminal */
    148              //Time_Adjust();
    149              BKP_WriteBackupRegister(BKP_DR1, 0xA5A5);
   \   0000008A   2100               MOVS     R1,R4
   \   0000008C   0420               MOVS     R0,#+4
   \   0000008E   ........           BL       BKP_WriteBackupRegister
   \   00000092   0EE0               B.N      ??HardWare_Init_2
    150            }
    151            else
    152            {
    153              /* Check if the Power On Reset flag is set */
    154              if (RCC_GetFlagStatus(RCC_FLAG_PORRST) != RESET)
   \                     ??HardWare_Init_1:
   \   00000094   7B20               MOVS     R0,#+123
   \   00000096   ........           BL       RCC_GetFlagStatus
   \   0000009A   10B9               CBNZ     R0,??HardWare_Init_3
    155              {
    156              }
    157              /* Check if the Pin Reset flag is set */
    158              else if (RCC_GetFlagStatus(RCC_FLAG_PINRST) != RESET)
   \   0000009C   7A20               MOVS     R0,#+122
   \   0000009E   ........           BL       RCC_GetFlagStatus
    159              {
    160              }
    161          
    162              /* Wait for RTC registers synchronization */
    163              RTC_WaitForSynchro();
   \                     ??HardWare_Init_3:
   \   000000A2   ........           BL       RTC_WaitForSynchro
    164          
    165              /* Enable the RTC Second */
    166              RTC_ITConfig(RTC_IT_SEC, ENABLE);
   \   000000A6   0121               MOVS     R1,#+1
   \   000000A8   0120               MOVS     R0,#+1
   \   000000AA   ........           BL       RTC_ITConfig
    167              /* Wait until last write operation on RTC registers has finished */
    168              RTC_WaitForLastTask();
   \   000000AE   ........           BL       RTC_WaitForLastTask
    169            }
    170            
    171            /* Clear reset flags */
    172            RCC_ClearFlag();
   \                     ??HardWare_Init_2:
   \   000000B2   ........           BL       RCC_ClearFlag
    173            
    174            /* NVIC configuration */
    175            NVIC_Configuration();
   \   000000B6   BDE81040           POP      {R4,LR}
   \   000000BA   ........           B.W      NVIC_Configuration
   \   000000BE   00BF               Nop      
   \                     ??HardWare_Init_0:
   \   000000C0   ........           DC32     MSPValue
   \   000000C4   001C0140           DC32     0x40011c00
   \   000000C8   ........           DC32     clRed
   \   000000CC   ........           DC32     clBlack
    176          
    177            
    178          }
    179          
    180          
    181          
    182          
    183          
    184          
    185          
    186          #ifdef  DEBUG
    187          /*******************************************************************************
    188          * Function Name  : assert_failed
    189          * Description    : Reports the name of the source file and the source line number
    190          *                  where the assert_param error has occurred.
    191          * Input          : - file: pointer to the source file name
    192          *                  - line: assert_param error line source number
    193          * Output         : None
    194          * Return         : None
    195          *******************************************************************************/
    196          void assert_failed(u8* file, u32 line)
    197          { 
    198            /* User can add his own implementation to report the file name and line number,
    199               ex: printf("Wrong parameters value: file %s on line %d\r\n", file, line) */
    200          
    201            /* Infinite loop */
    202            while (1)
    203            {
    204            }
    205          }
    206          #endif
    207          
    208          /******************* (C) COPYRIGHT 2008 STMicroelectronics *****END OF FILE****/
    209          
    210          /*************************************************************************
    211           * Function Name: LEDsSet
    212           * Parameters: unsigned int State
    213           *
    214           * Return: none
    215           *
    216           * Description: Set LEDS State
    217           *
    218           *************************************************************************/

   \                                 In section .text, align 4, keep-with-next
    219          void LEDsSet (unsigned int State)
    220          {
   \                     LEDsSet:
   \   00000000   38B5               PUSH     {R3-R5,LR}
   \   00000002   0400               MOVS     R4,R0
    221            GPIO_WriteBit(GPIOA,GPIO_Pin_4 ,(State & (1<<0 ))?Bit_RESET:Bit_SET);
   \   00000004   00F00100           AND      R0,R0,#0x1
   \   00000008   80F00102           EOR      R2,R0,#0x1
   \   0000000C   52B2               SXTB     R2,R2
   \   0000000E   1021               MOVS     R1,#+16
   \   00000010   1E48               LDR.N    R0,??LEDsSet_0   ;; 0x40010800
   \   00000012   ........           BL       GPIO_WriteBit
    222          //  GPIO_WriteBit(GPIOA,GPIO_Pin_5 ,(State & (1<<1 ))?Bit_RESET:Bit_SET);
    223          //  GPIO_WriteBit(GPIOA,GPIO_Pin_6 ,(State & (1<<2 ))?Bit_RESET:Bit_SET);
    224          //  GPIO_WriteBit(GPIOA,GPIO_Pin_7 ,(State & (1<<3 ))?Bit_RESET:Bit_SET);
    225          //  GPIO_WriteBit(GPIOA,GPIO_Pin_9 ,(State & (1<<4 ))?Bit_RESET:Bit_SET);
    226          //  GPIO_WriteBit(GPIOA,GPIO_Pin_10,(State & (1<<5 ))?Bit_RESET:Bit_SET);
    227            GPIO_WriteBit(GPIOB,GPIO_Pin_6 ,(State & (1<<6 ))?Bit_RESET:Bit_SET);
   \   00000016   1E4D               LDR.N    R5,??LEDsSet_0+0x4  ;; 0x40010c00
   \   00000018   2006               LSLS     R0,R4,#+24
   \   0000001A   800F               LSRS     R0,R0,#+30
   \   0000001C   00F00100           AND      R0,R0,#0x1
   \   00000020   80F00102           EOR      R2,R0,#0x1
   \   00000024   52B2               SXTB     R2,R2
   \   00000026   4021               MOVS     R1,#+64
   \   00000028   2800               MOVS     R0,R5
   \   0000002A   ........           BL       GPIO_WriteBit
    228            GPIO_WriteBit(GPIOB,GPIO_Pin_7 ,(State & (1<<7 ))?Bit_RESET:Bit_SET);
   \   0000002E   2006               LSLS     R0,R4,#+24
   \   00000030   C00F               LSRS     R0,R0,#+31
   \   00000032   80F00102           EOR      R2,R0,#0x1
   \   00000036   52B2               SXTB     R2,R2
   \   00000038   8021               MOVS     R1,#+128
   \   0000003A   2800               MOVS     R0,R5
   \   0000003C   ........           BL       GPIO_WriteBit
    229            GPIO_WriteBit(GPIOB,GPIO_Pin_10,(State & (1<<8 ))?Bit_RESET:Bit_SET);
   \   00000040   2004               LSLS     R0,R4,#+16
   \   00000042   000E               LSRS     R0,R0,#+24
   \   00000044   00F00100           AND      R0,R0,#0x1
   \   00000048   80F00102           EOR      R2,R0,#0x1
   \   0000004C   52B2               SXTB     R2,R2
   \   0000004E   4FF48061           MOV      R1,#+1024
   \   00000052   2800               MOVS     R0,R5
   \   00000054   ........           BL       GPIO_WriteBit
    230            GPIO_WriteBit(GPIOB,GPIO_Pin_11,(State & (1<<9 ))?Bit_RESET:Bit_SET);
   \   00000058   2004               LSLS     R0,R4,#+16
   \   0000005A   400E               LSRS     R0,R0,#+25
   \   0000005C   00F00100           AND      R0,R0,#0x1
   \   00000060   80F00102           EOR      R2,R0,#0x1
   \   00000064   52B2               SXTB     R2,R2
   \   00000066   4FF40061           MOV      R1,#+2048
   \   0000006A   2800               MOVS     R0,R5
   \   0000006C   ........           BL       GPIO_WriteBit
    231            GPIO_WriteBit(GPIOB,GPIO_Pin_12,(State & (1<<10))?Bit_RESET:Bit_SET);
   \   00000070   2404               LSLS     R4,R4,#+16
   \   00000072   A00E               LSRS     R0,R4,#+26
   \   00000074   00F00100           AND      R0,R0,#0x1
   \   00000078   80F00102           EOR      R2,R0,#0x1
   \   0000007C   52B2               SXTB     R2,R2
   \   0000007E   4FF48051           MOV      R1,#+4096
   \   00000082   2800               MOVS     R0,R5
   \   00000084   BDE83840           POP      {R3-R5,LR}
   \   00000088   ........           B.W      GPIO_WriteBit
   \                     ??LEDsSet_0:
   \   0000008C   00080140           DC32     0x40010800
   \   00000090   000C0140           DC32     0x40010c00
    232          //  GPIO_WriteBit(GPIOB,GPIO_Pin_13,(State & (1<<11))?Bit_RESET:Bit_SET);
    233          //  GPIO_WriteBit(GPIOB,GPIO_Pin_14,(State & (1<<12))?Bit_RESET:Bit_SET);
    234          //  GPIO_WriteBit(GPIOB,GPIO_Pin_15,(State & (1<<13))?Bit_RESET:Bit_SET);
    235          //  GPIO_WriteBit(GPIOC,GPIO_Pin_6 ,(State & (1<<14))?Bit_RESET:Bit_SET);
    236          //  GPIO_WriteBit(GPIOC,GPIO_Pin_7 ,(State & (1<<15))?Bit_RESET:Bit_SET);
    237          }
    238          
    239          
    240          
    241          
    242          
    243          /*******************************************************************************
    244          * Function name : Fill_Buffer
    245          * Description   : Fill the global buffer
    246          * Input         : - pBuffer: pointer on the Buffer to fill
    247          *                 - BufferSize: size of the buffer to fill
    248          *                 - Offset: first value to fill on the Buffer
    249          * Output param  : None
    250          *******************************************************************************/

   \                                 In section .text, align 4, keep-with-next
    251          void Fill_Buffer(u16 *pBuffer, u16 BufferLenght, u32 Offset)
    252          {
    253            u16 IndexTmp = 0;
    254          
    255            /* Put in global buffer same values */
    256            for (IndexTmp = 0; IndexTmp < BufferLenght; IndexTmp++ )
   \                     Fill_Buffer:
   \   00000000   0023               MOVS     R3,#+0
   \   00000002   04E0               B.N      ??Fill_Buffer_0
    257            {
    258              pBuffer[IndexTmp] = IndexTmp + Offset;
   \                     ??Fill_Buffer_1:
   \   00000004   02EB030C           ADD      R12,R2,R3
   \   00000008   20F813C0           STRH     R12,[R0, R3, LSL #+1]
    259            }
   \   0000000C   5B1C               ADDS     R3,R3,#+1
   \                     ??Fill_Buffer_0:
   \   0000000E   1FFA83FC           UXTH     R12,R3
   \   00000012   8C45               CMP      R12,R1
   \   00000014   F6D3               BCC.N    ??Fill_Buffer_1
    260          }
   \   00000016   7047               BX       LR               ;; return
    261          

   Maximum stack usage in bytes:

     Function      .cstack
     --------      -------
     Fill_Buffer        0
     HardWare_Init      0
     LEDsSet            0


   Section sizes:

     Function/Label   Bytes
     --------------   -----
     TabAddr             4
     MSPValue            4
     HSEStartUpStatus    1
     TxBuffer         2048
     NOR_ID              8
     HardWare_Init     208
     LEDsSet           148
     Fill_Buffer        24

 
 2 065 bytes in section .bss
   380 bytes in section .text
 
   380 bytes of CODE memory
 2 065 bytes of DATA memory

Errors: none
Warnings: none
