###############################################################################
#                                                                             #
# IAR ANSI C/C++ Compiler V5.20.0.50892/W32 for ARM     05/May/2009  18:27:52 #
# Copyright 1999-2008 IAR Systems AB.                                         #
#                                                                             #
#    Cpu mode     =  thumb                                                    #
#    Endian       =  little                                                   #
#    Source file  =  D:\wesley\AS210R_ST\Unit1.cpp                            #
#    Command line =  D:\wesley\AS210R_ST\Unit1.cpp -D VECT_TAB_FLASH -lC      #
#                    D:\wesley\AS210R_ST\STM3210E-EVAL\List\ -o               #
#                    D:\wesley\AS210R_ST\STM3210E-EVAL\Obj\ --no_cse          #
#                    --no_unroll --no_inline --no_code_motion --no_tbaa       #
#                    --no_clustering --no_scheduling --debug --endian=little  #
#                    --cpu=Cortex-M3 -e --char_is_signed                      #
#                    --require_prototypes --fpu=None --dlib_config            #
#                    "C:\Program Files\IAR Systems\Embedded Workbench         #
#                    5.0\ARM\INC\DLib_Config_Full.h" -I D:\wesley\AS210R_ST\  #
#                    -I D:\wesley\AS210R_ST\library\inc\ -I "C:\Program       #
#                    Files\IAR Systems\Embedded Workbench 5.0\ARM\INC\" -On   #
#    List file    =  D:\wesley\AS210R_ST\STM3210E-EVAL\List\Unit1.lst         #
#    Object file  =  D:\wesley\AS210R_ST\STM3210E-EVAL\Obj\Unit1.o            #
#                                                                             #
#                                                                             #
###############################################################################

D:\wesley\AS210R_ST\Unit1.cpp
      1          #include "BCorHardWare.h"
      2          
      3          #ifdef _HardWare// include
      4          //#include "ioReFlex.h"
      5          #include "LPC22xx.h"
      6          
      7          #include "global_main.h"

   \                                 In section .rodata, align 4
   \   unsigned char const __data MarkStrBoot[11]
   \                     MarkStrBoot:
   \   00000000   010102030405       DC8 "\001\001\002\003\004\005\006\007\010\011"
   \              0607080900  
   \   0000000B   00                 DC8 0

   \                                 In section .noinit, align 4
   \   unsigned char __data udf[10]
   \                     udf:
   \   00000000                      DS8 12

   \                                 In section .noinit, align 4
   \   unsigned char __data udfG[10]
   \                     udfG:
   \   00000000                      DS8 12

   \                                 In section .noinit, align 4
   \   unsigned char __data UartPreFrmTbl[255]
   \                     UartPreFrmTbl:
   \   00000000                      DS8 256

   \                                 In section .noinit, align 1
   \   unsigned char __data CommandMode
   \                     CommandMode:
   \   00000000                      DS8 1

   \                                 In section .noinit, align 4
   \   struct <unnamed> __data UARTFRM
   \                     UARTFRM:
   \   00000000                      DS8 4

   \                                 In section .noinit, align 4
   \   struct <unnamed> __data Reserve
   \                     Reserve:
   \   00000000                      DS8 4

   \                                 In section .noinit, align 1
   \   unsigned char __data UartDispMode
   \                     UartDispMode:
   \   00000000                      DS8 1

   \                                 In section .noinit, align 1
   \   unsigned char __data UartLang
   \                     UartLang:
   \   00000000                      DS8 1

   \                                 In section .noinit, align 1
   \   unsigned char __data UartID
   \                     UartID:
   \   00000000                      DS8 1

   \                                 In section .noinit, align 1
   \   unsigned char __data UartDelFlg
   \                     UartDelFlg:
   \   00000000                      DS8 1

   \                                 In section .noinit, align 1
   \   unsigned char __data UpdateFlg
   \                     UpdateFlg:
   \   00000000                      DS8 1

   \                                 In section .noinit, align 1
   \   unsigned char __data UpgradeMode
   \                     UpgradeMode:
   \   00000000                      DS8 1

   \                                 In section .noinit, align 4
   \   unsigned long __data TxtChkSum
   \                     TxtChkSum:
   \   00000000                      DS8 4

   \                                 In section .bss, align 2
   \   unsigned short __data UartChkSum
   \                     UartChkSum:
   \   00000000                      DS8 2

   \                                 In section .bss, align 4
   \   unsigned long __data RevBuffIndex
   \                     RevBuffIndex:
   \   00000000                      DS8 4

   \                                 In section .bss, align 1
   \   unsigned char __data RevCommand
   \                     RevCommand:
   \   00000000                      DS8 1

   \                                 In section .bss, align 1
   \   unsigned char __data RevFlag
   \                     RevFlag:
   \   00000000                      DS8 1

   \                                 In section .noinit, align 4
   \   unsigned long __data Cmd1Length
   \                     Cmd1Length:
   \   00000000                      DS8 4

   \                                 In section .noinit, align 4
   \   unsigned long __data Cmd3Length
   \                     Cmd3Length:
   \   00000000                      DS8 4

   \                                 In section .noinit, align 4
   \   unsigned long __data LastCmd3Len
   \                     LastCmd3Len:
   \   00000000                      DS8 4

   \                                 In section .bss, align 4
   \   unsigned long __data Times
   \                     Times:
   \   00000000                      DS8 4

   \                                 In section .data, align 1
   \   unsigned char __data Htag
   \                     Htag:
   \   00000000   20                 DC8 32

   \                                 In section .bss, align 1
   \   unsigned char __data UartHtag
   \                     UartHtag:
   \   00000000                      DS8 1

   \                                 In section .bss, align 1
   \   unsigned char __data Dtag
   \                     Dtag:
   \   00000000                      DS8 1

   \                                 In section .bss, align 1
   \   unsigned char __data TestMode
   \                     TestMode:
   \   00000000                      DS8 1

   \                                 In section .noinit, align 1
   \   unsigned char __data LNG
   \                     LNG:
   \   00000000                      DS8 1

   \                                 In section .noinit, align 1
   \   unsigned char __data R_MCNT
   \                     R_MCNT:
   \   00000000                      DS8 1

   \                                 In section .bss, align 4
   \   unsigned int __data Rec_Timer_cnt
   \                     Rec_Timer_cnt:
   \   00000000                      DS8 4

   \                                 In section FastDataRAM, align 4
   \   long __data SYS_sec
   \                     SYS_sec:
   \   00000000                      DS8 4

   \                                 In section .bss, align 4
   \   unsigned int __data gWRecLen
   \                     gWRecLen:
   \   00000000                      DS8 4

   \                                 In section .noinit, align 1
   \   unsigned char __data gUartRecTmp
   \                     gUartRecTmp:
   \   00000000                      DS8 1

   \                                 In section .noinit, align 4
   \   unsigned char __data gWRecBuff[2500]
   \                     gWRecBuff:
   \   00000000                      DS8 2500

   \                                 In section .bss, align 4
   \   unsigned int __data gWTxLen
   \                     gWTxLen:
   \   00000000                      DS8 4

   \                                 In section .bss, align 4
   \   unsigned int __data gWTxCnt
   \                     gWTxCnt:
   \   00000000                      DS8 4

   \                                 In section .noinit, align 4
   \   unsigned char __data gWTxBuff[1000]
   \                     gWTxBuff:
   \   00000000                      DS8 1000

   \                                 In section .bss, align 4
   \   unsigned int __data RecLen
   \                     RecLen:
   \   00000000                      DS8 4

   \                                 In section .bss, align 4
   \   unsigned int __data RecIndex
   \                     RecIndex:
   \   00000000                      DS8 4

   \                                 In section .noinit, align 1
   \   unsigned char __data MUS_flg
   \                     MUS_flg:
   \   00000000                      DS8 1

   \                                 In section .noinit, align 1
   \   unsigned char __data LED_ON_flag
   \                     LED_ON_flag:
   \   00000000                      DS8 1

   \                                 In section .noinit, align 1
   \   unsigned char __data MUS_timeout
   \                     MUS_timeout:
   \   00000000                      DS8 1

   \                                 In section .noinit, align 1
   \   unsigned char __data flg_ESC
   \                     flg_ESC:
   \   00000000                      DS8 1

   \                                 In section .noinit, align 1
   \   unsigned char __data RTS_flg
   \                     RTS_flg:
   \   00000000                      DS8 1

   \                                 In section .noinit, align 1
   \   unsigned char __data RTS_flg1
   \                     RTS_flg1:
   \   00000000                      DS8 1

   \                                 In section FastDataRAM, align 1
   \   unsigned char volatile __data LED_change
   \                     LED_change:
   \   00000000                      DS8 1

   \                                 In section .noinit, align 1
   \   unsigned char __data LED_Com_count
   \                     LED_Com_count:
   \   00000000                      DS8 1

   \                                 In section .noinit, align 1
   \   unsigned char __data LED_display_mode
   \                     LED_display_mode:
   \   00000000                      DS8 1

   \                                 In section .noinit, align 4
   \   unsigned char __data LED_ASCii_buffer[11]
   \                     LED_ASCii_buffer:
   \   00000000                      DS8 12

   \                                 In section FastDataRAM, align 4
   \   struct LED __data LED_display
   \                     LED_display:
   \   00000000                      DS8 160

   \                                 In section FastDataRAM, align 4
   \   struct LED __data LED_displayG
   \                     LED_displayG:
   \   00000000                      DS8 160

   \                                 In section FastDataRAM, align 4
   \   struct LED __data LED_buffer
   \                     LED_buffer:
   \   00000000                      DS8 160

   \                                 In section FastDataRAM, align 4
   \   struct LED __data LED_bufferG
   \                     LED_bufferG:
   \   00000000                      DS8 160

   \                                 In section FastDataRAM, align 4
   \   struct LED __data Backup
   \                     Backup:
   \   00000000                      DS8 160

   \                                 In section FastDataRAM, align 4
   \   struct LED __data BackupG
   \                     BackupG:
   \   00000000                      DS8 160

   \                                 In section .noinit, align 4
   \   unsigned int __data lenword
   \                     lenword:
   \   00000000                      DS8 4

   \                                 In section .noinit, align 4
   \   unsigned char *__data Dest_Adr
   \                     Dest_Adr:
   \   00000000                      DS8 4

   \                                 In section .noinit, align 4
   \   unsigned char *__data Sour_Adr
   \                     Sour_Adr:
   \   00000000                      DS8 4

   \                                 In section .noinit, align 4
   \   unsigned int __data Data_Len
   \                     Data_Len:
   \   00000000                      DS8 4

   \                                 In section .noinit, align 4
   \   unsigned int __data Dest_data
   \                     Dest_data:
   \   00000000                      DS8 4

   \                                 In section .noinit, align 1
   \   unsigned char __data Dest_char
   \                     Dest_char:
   \   00000000                      DS8 1

   \                                 In section .noinit, align 1
   \   unsigned char __data Disp_status
   \                     Disp_status:
   \   00000000                      DS8 1

   \                                 In section .noinit, align 1
   \   unsigned char __data FlashWriFlg
   \                     FlashWriFlg:
   \   00000000                      DS8 1

   \                                 In section .bss, align 1
   \   unsigned char volatile __data RecProcessing
   \                     RecProcessing:
   \   00000000                      DS8 1

   \                                 In section .noinit, align 4
   \   unsigned char __data SRAM_Program1[256]
   \                     SRAM_Program1:
   \   00000000                      DS8 256

   \                                 In section .noinit, align 4
   \   unsigned char __data SRAM_Program2[256]
   \                     SRAM_Program2:
   \   00000000                      DS8 256

   \                                 In section .noinit, align 4
   \   unsigned char __data RevBuff[120000]
   \                     RevBuff:
   \   00000000                      DS8 120000

   \                                 In section .noinit, align 4
   \   unsigned char __data FlashMark[10]
   \                     FlashMark:
   \   00000000                      DS8 12

   \                                 In section FastDataRAM, align 1
   \   unsigned char __data DispMode
   \                     DispMode:
   \   00000000                      DS8 1

   \                                 In section .noinit, align 4
   \   struct <unnamed> __data LEDFRM
   \                     LEDFRM:
   \   00000000                      DS8 4

   \                                 In section .noinit, align 4
   \   unsigned char __data PreFrameTable[255]
   \                     PreFrameTable:
   \   00000000                      DS8 256

   \                                 In section FastDataRAM, align 1
   \   unsigned char __data TxtMode
   \                     TxtMode:
   \   00000000                      DS8 1

   \                                 In section FastDataRAM, align 1
   \   unsigned char __data BinMix
   \                     BinMix:
   \   00000000                      DS8 1

   \                                 In section .noinit, align 4
   \   unsigned long __data BinChkSum[255]
   \                     BinChkSum:
   \   00000000                      DS8 1020

   \                                 In section .noinit, align 4
   \   struct <unnamed> __data LEDPage[255]
   \                     LEDPage:
   \   00000000                      DS8 103532

   \                                 In section .noinit, align 4
   \   struct <unnamed> __data LEDPage1[5]
   \                     LEDPage1:
   \   00000000                      DS8 11240

   \                                 In section .noinit, align 4
   \   unsigned char __data LastTxtBuff[2000]
   \                     LastTxtBuff:
   \   00000000                      DS8 2000

   \                                 In section .noinit, align 4
   \   int __data TopIndex
   \                     TopIndex:
   \   00000000                      DS8 4

   \                                 In section .noinit, align 4
   \   int __data LastIndex
   \                     LastIndex:
   \   00000000                      DS8 4

   \                                 In section .noinit, align 4
   \   int __data CurIndex
   \                     CurIndex:
   \   00000000                      DS8 4

   \                                 In section .noinit, align 4
   \   int __data LedDly
   \                     LedDly:
   \   00000000                      DS8 4

   \                                 In section .noinit, align 4
   \   unsigned int __data SramChkLen
   \                     SramChkLen:
   \   00000000                      DS8 4

   \                                 In section .noinit, align 4
   \   unsigned char __data RevTxtBuff[2000]
   \                     RevTxtBuff:
   \   00000000                      DS8 2000

   \                                 In section .noinit, align 4
   \   unsigned char __data RevTxtColor[2000]
   \                     RevTxtColor:
   \   00000000                      DS8 2000

   \                                 In section .noinit, align 4
   \   unsigned char __data TmpTxtBuff[2000]
   \                     TmpTxtBuff:
   \   00000000                      DS8 2000

   \                                 In section .noinit, align 4
   \   int __data yy_offset
   \                     yy_offset:
   \   00000000                      DS8 4

   \                                 In section .noinit, align 2
   \   unsigned short __data RevTxtLen
   \                     RevTxtLen:
   \   00000000                      DS8 2

   \                                 In section .noinit, align 4
   \   char __data DftMsg[51]
   \                     DftMsg:
   \   00000000                      DS8 52

   \                                 In section .noinit, align 1
   \   unsigned char __data dtm_flag
   \                     dtm_flag:
   \   00000000                      DS8 1

   \                                 In section .noinit, align 1
   \   unsigned char __data tmd_flag
   \                     tmd_flag:
   \   00000000                      DS8 1

   \                                 In section .noinit, align 4
   \   unsigned int __data tdy_flag
   \                     tdy_flag:
   \   00000000                      DS8 4

   \                                 In section .noinit, align 1
   \   unsigned char __data lng_flag
   \                     lng_flag:
   \   00000000                      DS8 1

   \                                 In section .noinit, align 1
   \   unsigned char __data tfm_flag
   \                     tfm_flag:
   \   00000000                      DS8 1

   \                                 In section .noinit, align 1
   \   unsigned char __data ddt_flag
   \                     ddt_flag:
   \   00000000                      DS8 1

   \                                 In section .noinit, align 1
   \   unsigned char __data mgc_flag
   \                     mgc_flag:
   \   00000000                      DS8 1

   \                                 In section .noinit, align 1
   \   unsigned char __data mau_flag
   \                     mau_flag:
   \   00000000                      DS8 1

   \                                 In section .noinit, align 1
   \   unsigned char __data dbz_flag
   \                     dbz_flag:
   \   00000000                      DS8 1

   \                                 In section .noinit, align 4
   \   unsigned int __data ztm_flag
   \                     ztm_flag:
   \   00000000                      DS8 4

   \                                 In section .noinit, align 1
   \   unsigned char __data zty_flag
   \                     zty_flag:
   \   00000000                      DS8 1

   \                                 In section .noinit, align 4
   \   unsigned int __data act_flag
   \                     act_flag:
   \   00000000                      DS8 4

   \                                 In section .noinit, align 4
   \   unsigned int __data acc_flag
   \                     acc_flag:
   \   00000000                      DS8 4

   \                                 In section .noinit, align 1
   \   unsigned char __data tsm_flag
   \                     tsm_flag:
   \   00000000                      DS8 1

   \                                 In section .noinit, align 1
   \   unsigned char __data crc_flag
   \                     crc_flag:
   \   00000000                      DS8 1

   \                                 In section .noinit, align 4
   \   unsigned int __data nst_flag
   \                     nst_flag:
   \   00000000                      DS8 4

   \                                 In section .noinit, align 4
   \   unsigned int __data timer_counter
   \                     timer_counter:
   \   00000000                      DS8 4

   \                                 In section .noinit, align 1
   \   unsigned char __data RTC_flag
   \                     RTC_flag:
   \   00000000                      DS8 1

   \                                 In section .noinit, align 4
   \   unsigned char (*__data Flash_Write_fun)(unsigned char *, unsigned char)
   \                     Flash_Write_fun:
   \   00000000                      DS8 4

   \                                 In section .noinit, align 1
   \   unsigned char __data dft_tm
   \                     dft_tm:
   \   00000000                      DS8 1

   \                                 In section .noinit, align 1
   \   unsigned char __data seq_flag
   \                     seq_flag:
   \   00000000                      DS8 1

   \                                 In section .noinit, align 1
   \   unsigned char __data last_str_width
   \                     last_str_width:
   \   00000000                      DS8 1

   \                                 In section .noinit, align 4
   \   struct <unnamed> __data TxtPage[34]
   \                     TxtPage:
   \   00000000                      DS8 136952

   \                                 In section .noinit, align 1
   \   unsigned char __data last_time
   \                     last_time:
   \   00000000                      DS8 1

   \                                 In section .noinit, align 1
   \   unsigned char __data last_M1
   \                     last_M1:
   \   00000000                      DS8 1

   \                                 In section .noinit, align 1
   \   unsigned char __data last_M2
   \                     last_M2:
   \   00000000                      DS8 1

   \                                 In section .noinit, align 1
   \   unsigned char __data last_MM
   \                     last_MM:
   \   00000000                      DS8 1

   \                                 In section .noinit, align 1
   \   unsigned char __data last_d1
   \                     last_d1:
   \   00000000                      DS8 1

   \                                 In section .noinit, align 1
   \   unsigned char __data last_d2
   \                     last_d2:
   \   00000000                      DS8 1

   \                                 In section .noinit, align 1
   \   unsigned char __data last_h1
   \                     last_h1:
   \   00000000                      DS8 1

   \                                 In section .noinit, align 1
   \   unsigned char __data last_h2
   \                     last_h2:
   \   00000000                      DS8 1

   \                                 In section .noinit, align 1
   \   unsigned char __data last_m1
   \                     last_m1:
   \   00000000                      DS8 1

   \                                 In section .noinit, align 1
   \   unsigned char __data last_m2
   \                     last_m2:
   \   00000000                      DS8 1

   \                                 In section .noinit, align 1
   \   unsigned char __data type_flag
   \                     type_flag:
   \   00000000                      DS8 1

   \                                 In section .noinit, align 1
   \   unsigned char __data amm_flag
   \                     amm_flag:
   \   00000000                      DS8 1

   \                                 In section .noinit, align 1
   \   unsigned char __data dmm_flag
   \                     dmm_flag:
   \   00000000                      DS8 1

   \                                 In section .noinit, align 1
   \   char __data tm_hr
   \                     tm_hr:
   \   00000000                      DS8 1

   \                                 In section .noinit, align 1
   \   unsigned char __data tm_mm
   \                     tm_mm:
   \   00000000                      DS8 1

   \                                 In section .noinit, align 1
   \   unsigned char __data tm_dd
   \                     tm_dd:
   \   00000000                      DS8 1

   \                                 In section .noinit, align 1
   \   unsigned char __data tm_hh
   \                     tm_hh:
   \   00000000                      DS8 1

   \                                 In section .noinit, align 1
   \   unsigned char __data tm_hr_pos
   \                     tm_hr_pos:
   \   00000000                      DS8 1

   \                                 In section .noinit, align 1
   \   unsigned char __data tm_spc_pos
   \                     tm_spc_pos:
   \   00000000                      DS8 1

   \                                 In section .noinit, align 4
   \   int __data Line2_Dly
   \                     Line2_Dly:
   \   00000000                      DS8 4

   \                                 In section .noinit, align 1
   \   unsigned char __data chg_flag
   \                     chg_flag:
   \   00000000                      DS8 1

   \                                 In section .noinit, align 1
   \   unsigned char __data mgn_flag
   \                     mgn_flag:
   \   00000000                      DS8 1

   \                                 In section .noinit, align 1
   \   unsigned char __data ani_flag
   \                     ani_flag:
   \   00000000                      DS8 1

   \                                 In section .noinit, align 1
   \   unsigned char __data te_flag
   \                     te_flag:
   \   00000000                      DS8 1

   \                                 In section .noinit, align 1
   \   unsigned char __data LED2_char_Length
   \                     LED2_char_Length:
   \   00000000                      DS8 1

   \                                 In section .noinit, align 1
   \   unsigned char __data tm_strt
   \                     tm_strt:
   \   00000000                      DS8 1

   \                                 In section .noinit, align 1
   \   unsigned char __data pri_flag
   \                     pri_flag:
   \   00000000                      DS8 1

   \                                 In section .noinit, align 1
   \   unsigned char __data primsg_flag
   \                     primsg_flag:
   \   00000000                      DS8 1

   \                                 In section .noinit, align 1
   \   unsigned char __data rlytm_flag
   \                     rlytm_flag:
   \   00000000                      DS8 1

   \                                 In section .noinit, align 1
   \   unsigned char __data rly_counter
   \                     rly_counter:
   \   00000000                      DS8 1

   \                                 In section .noinit, align 4
   \   unsigned long __data pri_bits
   \                     pri_bits:
   \   00000000                      DS8 4

   \                                 In section .noinit, align 4
   \   unsigned long __data mail_bits
   \                     mail_bits:
   \   00000000                      DS8 4

   \                                 In section .noinit, align 1
   \   unsigned char __data mdf_flag
   \                     mdf_flag:
   \   00000000                      DS8 1

   \                                 In section .noinit, align 1
   \   unsigned char __data priclr_flag
   \                     priclr_flag:
   \   00000000                      DS8 1

   \                                 In section .noinit, align 1
   \   unsigned char __data autoct_flag
   \                     autoct_flag:
   \   00000000                      DS8 1

   \                                 In section .noinit, align 1
   \   unsigned char __data pact_flag
   \                     pact_flag:
   \   00000000                      DS8 1

   \                                 In section .noinit, align 4
   \   unsigned int __data nml_timer
   \                     nml_timer:
   \   00000000                      DS8 4

   \                                 In section .noinit, align 4
   \   int __data PTopIndex
   \                     PTopIndex:
   \   00000000                      DS8 4

   \                                 In section .noinit, align 4
   \   int __data PLastIndex
   \                     PLastIndex:
   \   00000000                      DS8 4

   \                                 In section .noinit, align 1
   \   unsigned char __data pricnt_flag
   \                     pricnt_flag:
   \   00000000                      DS8 1

   \                                 In section .noinit, align 1
   \   unsigned char __data pgc_flag
   \                     pgc_flag:
   \   00000000                      DS8 1

   \                                 In section .noinit, align 4
   \   unsigned char __data TmpBuf[16][30]
   \                     TmpBuf:
   \   00000000                      DS8 480

   \                                 In section .noinit, align 4
   \   unsigned char __data TmpBufG[16][30]
   \                     TmpBufG:
   \   00000000                      DS8 480

   \                                 In section .noinit, align 4
   \   char __data Cmd_Str[20]
   \                     Cmd_Str:
   \   00000000                      DS8 20

   \                                 In section .noinit, align 1
   \   unsigned char __data ask_flag
   \                     ask_flag:
   \   00000000                      DS8 1

   \                                 In section .noinit, align 1
   \   unsigned char __data ask_value
   \                     ask_value:
   \   00000000                      DS8 1

   \                                 In section .noinit, align 4
   \   unsigned char __data ask_buf[30]
   \                     ask_buf:
   \   00000000                      DS8 32

   \                                 In section .noinit, align 1
   \   unsigned char __data LRCM_flag
   \                     LRCM_flag:
   \   00000000                      DS8 1

   \                                 In section .noinit, align 1
   \   unsigned char __data LRCM_value
   \                     LRCM_value:
   \   00000000                      DS8 1

   \                                 In section .noinit, align 1
   \   unsigned char __data tmhr_flag
   \                     tmhr_flag:
   \   00000000                      DS8 1

   \                                 In section .noinit, align 1
   \   unsigned char __data dot_flag
   \                     dot_flag:
   \   00000000                      DS8 1

   \                                 In section .noinit, align 1
   \   unsigned char __data last_y1
   \                     last_y1:
   \   00000000                      DS8 1

   \                                 In section .noinit, align 1
   \   unsigned char __data last_y2
   \                     last_y2:
   \   00000000                      DS8 1

   \                                 In section .noinit, align 1
   \   unsigned char __data tm_yy
   \                     tm_yy:
   \   00000000                      DS8 1

   \                                 In section .noinit, align 1
   \   unsigned char __data tm_hr_pos1
   \                     tm_hr_pos1:
   \   00000000                      DS8 1

   \                                 In section .noinit, align 4
   \   unsigned char __data msgno[34]
   \                     msgno:
   \   00000000                      DS8 36

   \                                 In section .noinit, align 1
   \   unsigned char __data pmau_flag
   \                     pmau_flag:
   \   00000000                      DS8 1

   \                                 In section .noinit, align 1
   \   unsigned char __data msgc_flag
   \                     msgc_flag:
   \   00000000                      DS8 1

   \                                 In section .noinit, align 1
   \   unsigned char __data pmsgc_flag
   \                     pmsgc_flag:
   \   00000000                      DS8 1

   \                                 In section .noinit, align 1
   \   unsigned char __data color_flag
   \                     color_flag:
   \   00000000                      DS8 1

   \                                 In section .noinit, align 1
   \   unsigned char __data pcolor_flag
   \                     pcolor_flag:
   \   00000000                      DS8 1

   \                                 In section .noinit, align 4
   \   unsigned char __data capcl_flag[24]
   \                     capcl_flag:
   \   00000000                      DS8 24

   \                                 In section .noinit, align 1
   \   unsigned char __data msgcl_flag
   \                     msgcl_flag:
   \   00000000                      DS8 1

   \                                 In section .noinit, align 4
   \   unsigned char __data autocl[24]
   \                     autocl:
   \   00000000                      DS8 24
      8          
      9          
     10          #include "typedef.h"
     11          typedef   int           BOOL;   
     12            #define   FALSE       0   
     13            #define   TRUE         1  
     14            #define   fale       0   
     15            #define   true         1  
     16          
     17          

   \                                 In section .bss, align 4
     18          	int Music_Busy;
   \                     Music_Busy:
   \   00000000                      DS8 4
     19          
     20          extern char ID_Str[];
     21          
     22          #include <string.h>

   \                                 In section .text, align 4
   \   __??Code16?? __intrinsic __code __interwork void *memcpy(void *, void const *, size_t)
   \                     memcpy:
   \   00000000   70B5               PUSH     {R4-R6,LR}
   \   00000002   0400               MOVS     R4,R0
   \   00000004   0D00               MOVS     R5,R1
   \   00000006   1600               MOVS     R6,R2
   \   00000008   3200               MOVS     R2,R6
   \   0000000A   2900               MOVS     R1,R5
   \   0000000C   2000               MOVS     R0,R4
   \   0000000E   ........           BL       __aeabi_memcpy
   \   00000012   2000               MOVS     R0,R4
   \   00000014   70BD               POP      {R4-R6,PC}       ;; return

   \                                 In section .text, align 4
   \   __??Code16?? __intrinsic __code __interwork void *memset(void *, int, size_t)
   \                     memset:
   \   00000000   70B5               PUSH     {R4-R6,LR}
   \   00000002   0400               MOVS     R4,R0
   \   00000004   0D00               MOVS     R5,R1
   \   00000006   1600               MOVS     R6,R2
   \   00000008   2A00               MOVS     R2,R5
   \   0000000A   3100               MOVS     R1,R6
   \   0000000C   2000               MOVS     R0,R4
   \   0000000E   ........           BL       __aeabi_memset
   \   00000012   2000               MOVS     R0,R4
   \   00000014   70BD               POP      {R4-R6,PC}       ;; return
     23          
     24          #else // BC6
     25          //---------------------------------------------------------------------------
     26          #include <vcl.h>
     27          #pragma hdrstop
     28          #include "Unit1.h"
     29          #include "Unit5.h"
     30          #include "Display.h"
     31          #include "UART.h"
     32          #include "PComm.h"
     33          #include "global_main.h" 
     34          #include "SelfTest.h"
     35          #include "ioReFlex.h"
     36          
     37          #endif
     38          
     39          
     40          #include <time.h>
     41          #include "LED_Effect.h"
     42          
     43          
     44          
     45          
     46          
     47          
     48          #ifdef _HardWare
     49          extern void self_test_entry(void) @"UpgradeROM" ;
     50          extern void UART_pro_entry(void) @"UpgradeROM" ;
     51          void main_Func (void);
     52          
     53          void DelayUs(int Us);
     54          BOOL OpenPort(int PortNum);
     55          void Send_Alpha(void);
     56          int chk_update(void);
     57          
     58          void SelfTest(void);
     59          extern void Relay(int color); // see LPC2210
     60          
     61          #else //BC6
     62          //---------------------------------------------------------------------------
     63          #pragma package(smart_init)
     64          #pragma resource "*.dfm"
     65          void DelayUs(__int64 Us);
     66          bool OpenPort(int PortNum);
     67          void Relay(int color);
     68          #endif
     69          
     70          void scroll_leftBack(int bytes);
     71          //void scroll_left_str(char *str);
     72          void shift_left(int pos,unsigned char buf[16][LED_byte_Length]);
     73          void shift_leftG(int pos,unsigned char buf[16][LED_byte_Length]);
     74          void rcl(unsigned char *ch);
     75          void rclG(unsigned char *ch);
     76          void clr_buf(unsigned char buf[16][LED_byte_Length]);
     77          void UART1receive(void);
     78          extern void UART_pro(void);
     79          int Host_SendNext(unsigned char *value,int n);
     80          int get_bit(unsigned long value,int id);//capcode 1 function A = id0 ==> MSB
     81          int get_next_id(int cnt);
     82          int get_next_priid(int cnt);
     83          int maildrop_count(unsigned long value);
     84          int get_msg_count(unsigned char value);
     85          void shift_line_left(int line,unsigned char buf[16][LED_byte_Length]);//BCBº“¿¿ assembly
     86          void shift_line_leftG(int line,unsigned char buf[16][LED_byte_Length]);
     87          void Shift_Line1_left(void);
     88          void Shift_Line2_left(void);
     89          extern void UART_pro_entry(void);
     90          unsigned char RTC_Initial(void);
     91          void beep_vibrate( unsigned char beep_type );
     92          void String_disp(char *DispStr);
     93          //void SelfTest(void);
     94          
     95          void Send_Alpha();
     96          void LED_ascii2buffer(unsigned char *ASC_Buf,int n);
     97          
     98          #ifdef _HardWare//DS

   \                                 In section .bss, align 4
     99          BOOL EndFlag;
   \                     EndFlag:
   \   00000000                      DS8 4
    100          #else // BC6
    101          bool EndFlag;
    102          #endif
    103          
    104          
    105          
    106          #ifdef _HardWare//DS
    107          
    108          #else // BC6
    109          TForm1 *Form1;
    110          TControlCanvas *ControlCanvas;
    111          DispThread *PDispThread;
    112          UartThread *PUartThread;
    113          SelfTest *PSelfTest;
    114          #endif
    115          
    116          int PreProcess(unsigned char buf[],int len);

   \                                 In section .bss, align 4
    117          unsigned char cfA[16],cf,cfAG[16],cfG;
   \                     cfA:
   \   00000000                      DS8 16

   \                                 In section .bss, align 1
   \                     cf:
   \   00000000                      DS8 1

   \                                 In section .bss, align 4
   \                     cfAG:
   \   00000000                      DS8 16

   \                                 In section .bss, align 1
   \                     cfG:
   \   00000000                      DS8 1
    118          
    119          
    120          

   \                                 In section .bss, align 4
    121          unsigned char Backup_buf[16][LED_byte_Length];
   \                     Backup_buf:
   \   00000000                      DS8 160

   \                                 In section .bss, align 4
    122          unsigned char disp_buf[16][LED_byte_Length];
   \                     disp_buf:
   \   00000000                      DS8 160
    123          
    124          struct {
    125            int x;
    126            int y;

   \                                 In section .bss, align 4
    127          }LEDShape[16+1][LED_byte_Length*8];
   \                     LEDShape:
   \   00000000                      DS8 10880
    128          

   \                                 In section .data, align 4
    129          unsigned char SpdTm[5]={1,8,4,2,2};
   \                     SpdTm:
   \   00000000   010804020200       DC8 1, 8, 4, 2, 2, 0, 0, 0
   \              0000        

   \                                 In section .data, align 4
    130          unsigned char SpdCn[5]={1,12,12,10,16};
   \                     SpdCn:
   \   00000000   010C0C0A1000       DC8 1, 12, 12, 10, 16, 0, 0, 0
   \              0000        
    131          

   \                                 In section .data, align 4
    132          char *DateStr[12]={"Jan","Fev","Mar","Avr","Mai","Jun","Jul","Aou","Sep","Oct","Nov","Dec"}; 
   \                     DateStr:
   \   00000000   ............       DC32 `?<Constant "Jan">`, `?<Constant "Fev">`, `?<Constant "Mar">`
   \              ............
   \   0000000C   ............       DC32 `?<Constant "Avr">`, `?<Constant "Mai">`, `?<Constant "Jun">`
   \              ............
   \   00000018   ............       DC32 `?<Constant "Jul">`, `?<Constant "Aou">`, `?<Constant "Sep">`
   \              ............
   \   00000024   ............       DC32 `?<Constant "Oct">`, `?<Constant "Nov">`, `?<Constant "Dec">`
   \              ............

   \                                 In section .data, align 4
    133          char *EngDate[12]={"Jan","Feb","Mar","Apr","May","Jun","Jul","Aug","Sep","Oct","Nov","Dec"};
   \                     EngDate:
   \   00000000   ............       DC32 `?<Constant "Jan">`, `?<Constant "Feb">`, `?<Constant "Mar">`
   \              ............
   \   0000000C   ............       DC32 `?<Constant "Apr">`, `?<Constant "May">`, `?<Constant "Jun">`
   \              ............
   \   00000018   ............       DC32 `?<Constant "Jul">`, `?<Constant "Aug">`, `?<Constant "Sep">`
   \              ............
   \   00000024   ............       DC32 `?<Constant "Oct">`, `?<Constant "Nov">`, `?<Constant "Dec">`
   \              ............
    134           

   \                                 In section .data, align 4
    135          unsigned char MonthStr[12]={0x31,0x28,0x31,0x30,0x31,0x30,0x31,0x31,0x30,0x31,0x30,0x31};
   \                     MonthStr:
   \   00000000   312831303130       DC8 49, 40, 49, 48, 49, 48, 49, 49, 48, 49, 48, 49
   \              313130313031
    136          

   \                                 In section .data, align 4
    137          unsigned char LED79PAT[] = {
   \                     LED79PAT:
   \   00000000   000000000000       DC8 0, 0, 0, 0, 0, 0, 0, 0, 0, 0, 0, 0, 0, 0, 0, 0, 0, 24, 24, 60, 60
   \              000000000000
   \              000000000018
   \              183C3C      
   \   00000015   3C3C18181800       DC8 60, 60, 24, 24, 24, 0, 0, 24, 24, 0, 0, 0, 198, 198, 198, 68, 0, 0
   \              001818000000
   \              C6C6C6440000
   \   00000027   000000000000       DC8 0, 0, 0, 0, 0, 0, 0, 0, 0, 0, 108, 108, 108, 254, 254, 108, 108
   \              000000006C6C
   \              6CFEFE6C6C  
   \   00000038   6CFEFE6C6C6C       DC8 108, 254, 254, 108, 108, 108, 0, 0, 0, 24, 24, 124, 198, 194, 192
   \              00000018187C
   \              C6C2C0      
   \   00000047   7C0686C67C18       DC8 124, 6, 134, 198, 124, 24, 24, 0, 0, 0, 6, 198, 204, 12, 24, 24, 48
   \              1800000006C6
   \              CC0C181830  
   \   00000058   30306066C6C0       DC8 48, 48, 96, 102, 198, 192, 0, 0, 0, 0, 112, 216, 136, 216, 112, 96
   \              0000000070D8
   \              88D87060    
   \   00000068   70DACECC7E32       DC8 112, 218, 206, 204, 126, 50, 0, 0, 0, 96, 96, 96, 192, 0, 0, 0, 0
   \              000000606060
   \              C000000000  
   \   00000079   000000000000       DC8 0, 0, 0, 0, 0, 0, 0, 0, 24, 48, 48, 96, 96, 96, 96, 96, 96, 96, 48
   \              000018303060
   \              606060606060
   \              30          
   \   0000008C   301800000030       DC8 48, 24, 0, 0, 0, 48, 24, 24, 12, 12, 12, 12, 12, 12, 12, 24, 24, 48
   \              18180C0C0C0C
   \              0C0C0C181830
   \   0000009E   000000000000       DC8 0, 0, 0, 0, 0, 0, 130, 68, 40, 254, 40, 68, 130, 0, 0, 0, 0, 0, 0
   \              824428FE2844
   \              820000000000
   \              00          
   \   000000B1   000000101010       DC8 0, 0, 0, 16, 16, 16, 254, 16, 16, 16, 0, 0, 0, 0, 0, 0, 0, 0, 0, 0
   \              FE1010100000
   \              000000000000
   \              0000        
   \   000000C5   000000000030       DC8 0, 0, 0, 0, 0, 48, 48, 48, 96, 0, 0, 0, 0, 0, 0, 0, 0, 0, 254, 254
   \              303060000000
   \              000000000000
   \              FEFE        
   \   000000D9   000000000000       DC8 0, 0, 0, 0, 0, 0, 0, 0, 0, 0, 0, 0, 0, 0, 0, 0, 0, 0, 0, 48, 48, 0
   \              000000000000
   \              000000000000
   \              00303000    
   \   000000EF   000006060C0C       DC8 0, 0, 6, 6, 12, 12, 24, 24, 48, 48, 48, 96, 96, 192, 192, 0, 0, 0
   \              181830303060
   \              60C0C0000000
   \   00000101   7CC6C6C6CEDE       DC8 124, 198, 198, 198, 206, 222, 246, 230, 198, 198, 198, 198, 124, 0
   \              F6E6C6C6C6C6
   \              7C00        
   \   0000010F   000018387818       DC8 0, 0, 24, 56, 120, 24, 24, 24, 24, 24, 24, 24, 24, 24, 126, 0, 0, 0
   \              181818181818
   \              18187E000000
   \   00000121   7CC68606060C       DC8 124, 198, 134, 6, 6, 12, 24, 48, 96, 192, 192, 192, 254, 0, 0, 0
   \              183060C0C0C0
   \              FE000000    
   \   00000131   7CC606060606       DC8 124, 198, 6, 6, 6, 6, 60, 6, 6, 6, 6, 198, 124, 0, 0, 0, 12, 12, 28
   \              3C06060606C6
   \              7C0000000C0C
   \              1C          
   \   00000144   3C6CCCCCCCFE       DC8 60, 108, 204, 204, 204, 254, 12, 12, 12, 30, 0, 0, 0, 254, 192, 192
   \              0C0C0C1E0000
   \              00FEC0C0    
   \   00000154   C0C0FC060606       DC8 192, 192, 252, 6, 6, 6, 6, 6, 198, 124, 0, 0, 0, 56, 96, 192, 192
   \              0606C67C0000
   \              003860C0C0  
   \   00000165   C0C0FCC6C6C6       DC8 192, 192, 252, 198, 198, 198, 198, 198, 124, 0, 0, 0, 254, 198, 6
   \              C6C67C000000
   \              FEC606      
   \   00000174   06060C303030       DC8 6, 6, 12, 48, 48, 48, 48, 48, 48, 48, 0, 0, 0, 124, 198, 198, 198
   \              303030300000
   \              007CC6C6C6  
   \   00000185   C6C67CC6C6C6       DC8 198, 198, 124, 198, 198, 198, 198, 198, 124, 0, 0, 0, 124, 198, 198
   \              C6C67C000000
   \              7CC6C6      
   \   00000194   C6C6C67E0606       DC8 198, 198, 198, 126, 6, 6, 6, 6, 12, 120, 0, 0, 0, 0, 0, 0, 48, 48
   \              06060C780000
   \              000000003030
   \   000001A6   000000303000       DC8 0, 0, 0, 48, 48, 0, 0, 0, 0, 0, 0, 0, 0, 0, 48, 48, 0, 0, 0, 48, 48
   \              000000000000
   \              000030300000
   \              003030      
   \   000001BB   306000000000       DC8 48, 96, 0, 0, 0, 0, 0, 6, 12, 24, 48, 96, 192, 96, 48, 24, 12, 6, 0
   \              00060C183060
   \              C06030180C06
   \              00          
   \   000001CE   000000000000       DC8 0, 0, 0, 0, 0, 0, 0, 0, 252, 0, 0, 252, 0, 0, 0, 0, 0, 0, 0, 0, 192
   \              0000FC0000FC
   \              000000000000
   \              0000C0      
   \   000001E3   6030180C060C       DC8 96, 48, 24, 12, 6, 12, 24, 48, 96, 192, 0, 0, 0, 0, 56, 124, 198
   \              183060C00000
   \              0000387CC6  
   \   000001F4   C60C18181818       DC8 198, 12, 24, 24, 24, 24, 0, 0, 24, 24, 0, 0, 0, 56, 124, 238, 198
   \              000018180000
   \              00387CEEC6  
   \   00000205   DEDED6DEDCC0       DC8 222, 222, 214, 222, 220, 192, 230, 126, 60, 0, 0, 0, 16, 56, 108
   \              E67E3C000000
   \              10386C      
   \   00000214   C6C6C6FEC6C6       DC8 198, 198, 198, 254, 198, 198, 198, 198, 198, 198, 0, 0, 0, 252, 102
   \              C6C6C6C60000
   \              00FC66      
   \   00000223   666666667C66       DC8 102, 102, 102, 102, 124, 102, 102, 102, 102, 102, 252, 0, 0, 0, 60
   \              66666666FC00
   \              00003C      
   \   00000232   66C2C0C0C0C0       DC8 102, 194, 192, 192, 192, 192, 192, 192, 192, 194, 102, 60, 0, 0, 0
   \              C0C0C0C2663C
   \              000000      
   \   00000241   F86C66666666       DC8 248, 108, 102, 102, 102, 102, 102, 102, 102, 102, 102, 108, 248, 0
   \              66666666666C
   \              F800        
   \   0000024F   0000FE666260       DC8 0, 0, 254, 102, 98, 96, 96, 104, 120, 104, 96, 96, 98, 102, 254, 0
   \              606878686060
   \              6266FE00    
   \   0000025F   0000FE666260       DC8 0, 0, 254, 102, 98, 96, 96, 104, 120, 104, 96, 96, 96, 96, 240, 0
   \              606878686060
   \              6060F000    
   \   0000026F   00003C66C2C0       DC8 0, 0, 60, 102, 194, 192, 192, 192, 192, 222, 198, 198, 198, 102, 58
   \              C0C0C0DEC6C6
   \              C6663A      
   \   0000027E   000000C6C6C6       DC8 0, 0, 0, 198, 198, 198, 198, 198, 198, 254, 198, 198, 198, 198, 198
   \              C6C6C6FEC6C6
   \              C6C6C6      
   \   0000028D   C60000007830       DC8 198, 0, 0, 0, 120, 48, 48, 48, 48, 48, 48, 48, 48, 48, 48, 48, 120
   \              303030303030
   \              3030303078  
   \   0000029E   0000001E0C0C       DC8 0, 0, 0, 30, 12, 12, 12, 12, 12, 12, 12, 12, 12, 204, 204, 120, 0
   \              0C0C0C0C0C0C
   \              0CCCCC7800  
   \   000002AF   0000E666666C       DC8 0, 0, 230, 102, 102, 108, 108, 104, 120, 104, 108, 108, 102, 102
   \              6C6878686C6C
   \              6666        
   \   000002BD   E6000000F060       DC8 230, 0, 0, 0, 240, 96, 96, 96, 96, 96, 96, 96, 96, 96, 98, 102, 254
   \              606060606060
   \              60606266FE  
   \   000002CE   000000C6C6C6       DC8 0, 0, 0, 198, 198, 198, 238, 254, 214, 198, 198, 198, 198, 198, 198
   \              EEFED6C6C6C6
   \              C6C6C6      
   \   000002DD   C6000000C6C6       DC8 198, 0, 0, 0, 198, 198, 198, 230, 246, 254, 222, 206, 206, 198, 198
   \              C6E6F6FEDECE
   \              CEC6C6      
   \   000002EC   C6C600000038       DC8 198, 198, 0, 0, 0, 56, 108, 198, 198, 198, 198, 198, 198, 198, 198
   \              6CC6C6C6C6C6
   \              C6C6C6      
   \   000002FB   C66C38000000       DC8 198, 108, 56, 0, 0, 0, 252, 102, 102, 102, 102, 102, 124, 96, 96
   \              FC6666666666
   \              7C6060      
   \   0000030A   606060F00000       DC8 96, 96, 96, 240, 0, 0, 0, 124, 198, 198, 198, 198, 198, 198, 198
   \              007CC6C6C6C6
   \              C6C6C6      
   \   00000319   DEC67C0C0E00       DC8 222, 198, 124, 12, 14, 0, 0, 0, 252, 102, 102, 102, 102, 102, 124
   \              0000FC666666
   \              66667C      
   \   00000328   786C666666E6       DC8 120, 108, 102, 102, 102, 230, 0, 0, 0, 124, 198, 198, 192, 192, 96
   \              0000007CC6C6
   \              C0C060      
   \   00000337   380C0606C6C6       DC8 56, 12, 6, 6, 198, 198, 124, 0, 0, 0, 254, 178, 48, 48, 48, 48, 48
   \              7C000000FEB2
   \              3030303030  
   \   00000348   303030303078       DC8 48, 48, 48, 48, 48, 120, 0, 0, 0, 198, 198, 198, 198, 198, 198, 198
   \              000000C6C6C6
   \              C6C6C6C6    
   \   00000358   C6C6C6C6C67C       DC8 198, 198, 198, 198, 198, 124, 0, 0, 0, 198, 198, 198, 198, 198, 198
   \              000000C6C6C6
   \              C6C6C6      
   \   00000367   C6C6C6C66C38       DC8 198, 198, 198, 198, 108, 56, 16, 0, 0, 0, 198, 198, 198, 198, 198
   \              10000000C6C6
   \              C6C6C6      
   \   00000376   C6C6D6FEFEEE       DC8 198, 198, 214, 254, 254, 238, 198, 198, 0, 0, 0, 198, 198, 198, 198
   \              C6C6000000C6
   \              C6C6C6      
   \   00000385   C66C386CC6C6       DC8 198, 108, 56, 108, 198, 198, 198, 198, 198, 0, 0, 0, 198, 198, 198
   \              C6C6C6000000
   \              C6C6C6      
   \   00000394   C6C66C383838       DC8 198, 198, 108, 56, 56, 56, 56, 56, 56, 124, 0, 0, 0, 254, 198, 134
   \              3838387C0000
   \              00FEC686    
   \   000003A4   060C183060C0       DC8 6, 12, 24, 48, 96, 192, 192, 194, 198, 254, 0, 0, 0, 120, 96, 96
   \              C0C2C6FE0000
   \              00786060    
   \   000003B4   606060606060       DC8 96, 96, 96, 96, 96, 96, 96, 96, 96, 120, 0, 0, 0, 192, 192, 96, 96
   \              606060780000
   \              00C0C06060  
   \   000003C5   30301818180C       DC8 48, 48, 24, 24, 24, 12, 12, 6, 6, 0, 0, 0, 120, 24, 24, 24, 24, 24
   \              0C0606000000
   \              781818181818
   \   000003D7   181818181818       DC8 24, 24, 24, 24, 24, 24, 120, 0, 0, 0, 16, 56, 108, 198, 0, 0, 0, 0
   \              780000001038
   \              6CC600000000
   \   000003E9   000000000000       DC8 0, 0, 0, 0, 0, 0, 0, 0, 0, 0, 0, 0, 0, 0, 0, 0, 0, 0, 0, 0, 254
   \              000000000000
   \              000000000000
   \              0000FE      
   \   000003FE   FE0000303030       DC8 254, 0, 0, 48, 48, 48, 24, 0, 0, 0, 0, 0, 0, 0, 0, 0, 0, 0, 0, 0, 0
   \              180000000000
   \              000000000000
   \              000000      
   \   00000413   000000780C0C       DC8 0, 0, 0, 120, 12, 12, 124, 204, 204, 204, 118, 0, 0, 0, 224, 96, 96
   \              7CCCCCCC7600
   \              0000E06060  
   \   00000424   606060786C66       DC8 96, 96, 96, 120, 108, 102, 102, 102, 102, 220, 0, 0, 0, 0, 0, 0, 0
   \              666666DC0000
   \              0000000000  
   \   00000435   007CC6C0C0C0       DC8 0, 124, 198, 192, 192, 192, 192, 198, 124, 0, 0, 0, 28, 12, 12, 12
   \              C0C67C000000
   \              1C0C0C0C    
   \   00000445   0C0C3C6CCCCC       DC8 12, 12, 60, 108, 204, 204, 204, 204, 118, 0, 0, 0, 0, 0, 0, 0, 0
   \              CCCC76000000
   \              0000000000  
   \   00000456   7CC6C6FEC0C0       DC8 124, 198, 198, 254, 192, 192, 198, 124, 0, 0, 0, 56, 108, 100, 96
   \              C67C00000038
   \              6C6460      
   \   00000465   6060F8606060       DC8 96, 96, 248, 96, 96, 96, 96, 96, 240, 0, 0, 0, 0, 0, 0, 0, 0, 118
   \              6060F0000000
   \              000000000076
   \   00000477   CCCCCCCC7C0C       DC8 204, 204, 204, 204, 124, 12, 12, 204, 120, 0, 224, 96, 96, 96, 96
   \              0CCC7800E060
   \              606060      
   \   00000486   6C7E66666666       DC8 108, 126, 102, 102, 102, 102, 102, 230, 0, 0, 0, 0, 0, 24, 24, 0
   \              66E600000000
   \              00181800    
   \   00000496   381818181818       DC8 56, 24, 24, 24, 24, 24, 24, 60, 0, 0, 0, 0, 0, 12, 12, 0, 28, 12
   \              183C00000000
   \              000C0C001C0C
   \   000004A8   0C0C0C0CCCCC       DC8 12, 12, 12, 12, 204, 204, 204, 120, 0, 224, 96, 96, 96, 96, 96, 102
   \              CC7800E06060
   \              60606066    
   \   000004B8   6C7870786CE6       DC8 108, 120, 112, 120, 108, 230, 0, 0, 0, 56, 24, 24, 24, 24, 24, 24
   \              000000381818
   \              18181818    
   \   000004C8   18181818183C       DC8 24, 24, 24, 24, 24, 60, 0, 0, 0, 0, 0, 0, 0, 0, 68, 254, 214, 214
   \              000000000000
   \              000044FED6D6
   \   000004DA   D6D6D6D60000       DC8 214, 214, 214, 214, 0, 0, 0, 0, 0, 0, 0, 0, 220, 102, 102, 102, 102
   \              000000000000
   \              DC66666666  
   \   000004EB   666666000000       DC8 102, 102, 102, 0, 0, 0, 0, 0, 0, 0, 0, 124, 198, 198, 198, 198, 198
   \              00000000007C
   \              C6C6C6C6C6  
   \   000004FC   C67C00000000       DC8 198, 124, 0, 0, 0, 0, 0, 0, 0, 0, 220, 102, 102, 102, 102, 124, 96
   \              00000000DC66
   \              6666667C60  
   \   0000050D   6060F0000000       DC8 96, 96, 240, 0, 0, 0, 0, 0, 0, 118, 204, 204, 204, 204, 124, 12, 12
   \              00000076CCCC
   \              CCCC7C0C0C  
   \   0000051E   0C1E00000000       DC8 12, 30, 0, 0, 0, 0, 0, 0, 220, 118, 102, 96, 96, 96, 96, 240, 0, 0
   \              0000DC766660
   \              606060F00000
   \   00000530   000000000000       DC8 0, 0, 0, 0, 0, 0, 124, 198, 198, 112, 28, 198, 198, 124, 0, 0, 0
   \              7CC6C6701CC6
   \              C67C000000  
   \   00000541   1030303030FC       DC8 16, 48, 48, 48, 48, 252, 48, 48, 48, 48, 54, 54, 28, 0, 0, 0, 0, 0
   \              303030303636
   \              1C0000000000
   \   00000553   000000CCCCCC       DC8 0, 0, 0, 204, 204, 204, 204, 204, 204, 204, 118, 0, 0, 0, 0, 0, 0
   \              CCCCCCCC7600
   \              0000000000  
   \   00000564   0000C6C6C6C6       DC8 0, 0, 198, 198, 198, 198, 108, 108, 56, 16, 0, 0, 0, 0, 0, 0, 0, 0
   \              6C6C38100000
   \              000000000000
   \   00000576   C6C6C6C6C6D6       DC8 198, 198, 198, 198, 198, 214, 254, 108, 0, 0, 0, 0, 0, 0, 0, 0, 198
   \              FE6C00000000
   \              00000000C6  
   \   00000587   C66C38386CC6       DC8 198, 108, 56, 56, 108, 198, 198, 0, 0, 0, 0, 0, 0, 0, 0, 198, 198
   \              C60000000000
   \              000000C6C6  
   \   00000598   C6C67E060606       DC8 198, 198, 126, 6, 6, 6, 12, 120, 0, 0, 0, 0, 0, 0, 254, 198, 12, 24
   \              0C7800000000
   \              0000FEC60C18
   \   000005AA   3060C6FE0000       DC8 48, 96, 198, 254, 0, 0, 0, 28, 48, 48, 48, 48, 48, 224, 48, 48, 48
   \              001C30303030
   \              30E0303030  
   \   000005BB   30301C000000       DC8 48, 48, 28, 0, 0, 0, 48, 48, 48, 48, 48, 48, 0, 48, 48, 48, 48, 48
   \              303030303030
   \              003030303030
   \   000005CD   30000000E030       DC8 48, 0, 0, 0, 224, 48, 48, 48, 48, 48, 28, 48, 48, 48, 48, 48, 224
   \              303030301C30
   \              30303030E0  
   \   000005DE   000000000076       DC8 0, 0, 0, 0, 0, 118, 220, 0, 0, 0, 0, 0, 0, 0, 0, 0, 0, 0, 0, 0, 0
   \              DC0000000000
   \              000000000000
   \              000000      
   \   000005F3   000000000000       DC8 0, 0, 0, 0, 0, 0, 0, 0, 0, 0, 0, 0, 0, 0, 28, 50, 96, 96, 96, 254
   \              000000000000
   \              00001C326060
   \              60FE        
   \   00000607   60FE60606032       DC8 96, 254, 96, 96, 96, 50, 28, 0, 0, 0, 0, 0, 0, 0, 0, 0, 0, 0, 0, 0
   \              1C0000000000
   \              000000000000
   \              0000        
   \   0000061B   000000000000       DC8 0, 0, 0, 0, 0, 0, 0, 0, 0, 0, 0, 0, 0, 0, 0, 96, 96, 96, 192, 0, 0
   \              000000000000
   \              000000606060
   \              C00000      
   \   00000630   000E18303030       DC8 0, 14, 24, 48, 48, 48, 124, 124, 48, 48, 48, 48, 48, 96, 192, 0, 0
   \              7C7C30303030
   \              3060C00000  
   \   00000641   000000000000       DC8 0, 0, 0, 0, 0, 0, 0, 0, 0, 108, 108, 108, 216, 0, 0, 0, 0, 0, 0, 0
   \              0000006C6C6C
   \              D80000000000
   \              0000        
   \   00000655   000000000000       DC8 0, 0, 0, 0, 0, 0, 84, 84, 0, 0, 0, 0, 24, 24, 24, 24, 126, 126, 24
   \              545400000000
   \              181818187E7E
   \              18          
   \   00000668   181818181818       DC8 24, 24, 24, 24, 24, 24, 0, 0, 0, 24, 24, 24, 126, 126, 24, 24, 126
   \              000000181818
   \              7E7E18187E  
   \   00000679   7E1818181800       DC8 126, 24, 24, 24, 24, 0, 0, 0, 56, 108, 0, 0, 0, 0, 0, 0, 0, 0, 0, 0
   \              0000386C0000
   \              000000000000
   \              0000        
   \   0000068D   00000000E0A2       DC8 0, 0, 0, 0, 224, 162, 164, 168, 240, 32, 64, 128, 238, 170, 170
   \              A4A8F0204080
   \              EEAAAA      
   \   0000069C   AAEE0000006C       DC8 170, 238, 0, 0, 0, 108, 40, 16, 0, 124, 198, 198, 192, 124, 6, 198
   \              2810007CC6C6
   \              C07C06C6    
   \   000006AC   C67C00000000       DC8 198, 124, 0, 0, 0, 0, 0, 0, 0, 0, 16, 48, 96, 96, 48, 16, 0, 0, 0
   \              000000001030
   \              606030100000
   \              00          
   \   000006BF   00007EDAC8C8       DC8 0, 0, 126, 218, 200, 200, 200, 202, 206, 202, 200, 200, 200, 218
   \              C8CACECAC8C8
   \              C8DA        
   \   000006CD   7E0000000000       DC8 126, 0, 0, 0, 0, 0, 0, 0, 0, 0, 0, 0, 0, 0, 0, 0, 0, 0, 0, 0, 108
   \              000000000000
   \              000000000000
   \              00006C      
   \   000006E2   281000FC8C0C       DC8 40, 16, 0, 252, 140, 12, 24, 48, 96, 192, 196, 252, 0, 0, 0, 0, 0
   \              183060C0C4FC
   \              0000000000  
   \   000006F3   000000000000       DC8 0, 0, 0, 0, 0, 0, 0, 0, 0, 0, 0, 0, 0, 0, 0, 0, 0, 0, 0, 0, 0, 0, 0
   \              000000000000
   \              000000000000
   \              0000000000  
   \   0000070A   000000000000       DC8 0, 0, 0, 0, 0, 0, 0, 96, 96, 96, 96, 48, 0, 0, 0, 0, 0, 0, 0, 0, 0
   \              006060606030
   \              000000000000
   \              000000      
   \   0000071F   000030303030       DC8 0, 0, 48, 48, 48, 48, 96, 0, 0, 0, 0, 0, 0, 0, 0, 0, 0, 0, 216, 216
   \              600000000000
   \              000000000000
   \              D8D8        
   \   00000733   D8D86C000000       DC8 216, 216, 108, 0, 0, 0, 0, 0, 0, 0, 0, 0, 0, 0, 108, 108, 108, 108
   \              000000000000
   \              00006C6C6C6C
   \   00000745   D80000000000       DC8 216, 0, 0, 0, 0, 0, 0, 0, 0, 0, 0, 0, 0, 0, 0, 0, 0, 60, 126, 126
   \              000000000000
   \              00000000003C
   \              7E7E        
   \   00000759   7E7E3C000000       DC8 126, 126, 60, 0, 0, 0, 0, 0, 0, 0, 0, 0, 0, 0, 126, 126, 0, 0, 0, 0
   \              000000000000
   \              00007E7E0000
   \              0000        
   \   0000076D   000000000000       DC8 0, 0, 0, 0, 0, 0, 0, 0, 0, 0, 254, 254, 0, 0, 0, 0, 0, 0, 0, 0, 0
   \              00000000FEFE
   \              000000000000
   \              000000      
   \   00000782   006498000000       DC8 0, 100, 152, 0, 0, 0, 0, 0, 0, 0, 0, 0, 0, 0, 0, 0, 0, 251, 95, 85
   \              000000000000
   \              0000000000FB
   \              5F55        
   \   00000796   515100000000       DC8 81, 81, 0, 0, 0, 0, 0, 0, 0, 0, 0, 0, 0, 108, 56, 0, 120, 196, 224
   \              000000000000
   \              006C380078C4
   \              E0          
   \   000007A9   781C8C780000       DC8 120, 28, 140, 120, 0, 0, 0, 0, 0, 0, 0, 0, 0, 64, 96, 48, 48, 96
   \              000000000000
   \              004060303060
   \   000007BB   400000000000       DC8 64, 0, 0, 0, 0, 0, 0, 0, 0, 0, 0, 116, 202, 210, 222, 208, 200, 118
   \              000000000074
   \              CAD2DED0C876
   \   000007CD   000000000000       DC8 0, 0, 0, 0, 0, 0, 0, 0, 0, 0, 0, 0, 0, 0, 0, 0, 0, 0, 0, 0, 0, 0
   \              000000000000
   \              000000000000
   \              00000000    
   \   000007E3   6C3800FC0C18       DC8 108, 56, 0, 252, 12, 24, 48, 96, 192, 252, 0, 0, 0, 0, 102, 102, 0
   \              3060C0FC0000
   \              0000666600  
   \   000007F4   C3C366663C18       DC8 195, 195, 102, 102, 60, 24, 24, 24, 24, 24, 0, 0, 0, 0, 0, 0, 0, 0
   \              181818180000
   \              000000000000
   \   00000806   000000000000       DC8 0, 0, 0, 0, 0, 0, 0, 0, 0, 0, 0, 0, 0, 0, 48, 48, 0, 48, 48, 48, 48
   \              000000000000
   \              000030300030
   \              303030      
   \   0000081B   303030000000       DC8 48, 48, 48, 0, 0, 0, 0, 0, 0, 2, 124, 206, 200, 208, 208, 224, 230
   \              000000027CCE
   \              C8D0D0E0E6  
   \   0000082C   7C8000000038       DC8 124, 128, 0, 0, 0, 56, 108, 96, 96, 96, 96, 254, 96, 96, 96, 96
   \              6C60606060FE
   \              60606060    
   \   0000083C   E2FE00000000       DC8 226, 254, 0, 0, 0, 0, 0, 0, 180, 120, 204, 204, 120, 180, 0, 0, 0
   \              0000B478CCCC
   \              78B4000000  
   \   0000084D   00000000C682       DC8 0, 0, 0, 0, 198, 130, 68, 68, 56, 16, 254, 16, 254, 16, 16, 16, 124
   \              44443810FE10
   \              FE1010107C  
   \   0000085E   000000303030       DC8 0, 0, 0, 48, 48, 48, 48, 48, 48, 0, 0, 48, 48, 48, 48, 48, 0, 0, 0
   \              303030000030
   \              303030300000
   \              00          
   \   00000871   7CFCC0C07CFE       DC8 124, 252, 192, 192, 124, 254, 198, 254, 124, 6, 6, 126, 124, 0, 0
   \              C6FE7C06067E
   \              7C0000      
   \   00000880   003333000000       DC8 0, 51, 51, 0, 0, 0, 0, 0, 0, 0, 0, 0, 0, 0, 0, 0, 0, 0, 0, 0, 56
   \              000000000000
   \              000000000000
   \              000038      
   \   00000895   4492AAA2A2AA       DC8 68, 146, 170, 162, 162, 170, 146, 68, 56, 0, 0, 0, 0, 112, 24, 120
   \              924438000000
   \              00701878    
   \   000008A5   D8D83C00F800       DC8 216, 216, 60, 0, 248, 0, 0, 0, 0, 0, 0, 0, 0, 0, 0, 0, 8, 26, 54
   \              000000000000
   \              00000000081A
   \              36          
   \   000008B8   6CD86C361A08       DC8 108, 216, 108, 54, 26, 8, 0, 0, 0, 0, 0, 0, 0, 0, 0, 254, 254, 6, 6
   \              000000000000
   \              000000FEFE06
   \              06          
   \   000008CB   060000000000       DC8 6, 0, 0, 0, 0, 0, 0, 0, 0, 0, 0, 0, 60, 60, 0, 0, 0, 0, 0, 0, 0, 0
   \              000000000000
   \              3C3C00000000
   \              00000000    
   \   000008E1   0000003844B2       DC8 0, 0, 0, 56, 68, 178, 170, 170, 178, 170, 166, 68, 56, 0, 0, 0, 0
   \              AAAAB2AAA644
   \              3800000000  
   \   000008F2   00000000003C       DC8 0, 0, 0, 0, 0, 60, 60, 0, 0, 0, 0, 0, 0, 0, 0, 0, 0, 96, 240, 144
   \              3C0000000000
   \              000000000060
   \              F090        
   \   00000906   F06000000000       DC8 240, 96, 0, 0, 0, 0, 0, 0, 0, 0, 0, 0, 48, 48, 48, 48, 254, 254, 48
   \              000000000000
   \              30303030FEFE
   \              30          
   \   00000919   303000FEFE00       DC8 48, 48, 0, 254, 254, 0, 0, 0, 0, 112, 136, 8, 16, 32, 64, 248, 0, 0
   \              000000708808
   \              102040F80000
   \   0000092B   000000000000       DC8 0, 0, 0, 0, 0, 0, 0, 96, 144, 16, 32, 16, 144, 96, 0, 0, 0, 0, 0, 0
   \              006090102010
   \              906000000000
   \              0000        
   \   0000093F   000000183060       DC8 0, 0, 0, 24, 48, 96, 192, 0, 0, 0, 0, 0, 0, 0, 0, 0, 0, 0, 0, 0, 0
   \              C00000000000
   \              000000000000
   \              000000      
   \   00000954   00C6C6C6C6C6       DC8 0, 198, 198, 198, 198, 198, 198, 198, 124, 64, 64, 128, 0, 0, 0, 0
   \              C6C67C404080
   \              00000000    
   \   00000964   7EFAFAFAFA7A       DC8 126, 250, 250, 250, 250, 122, 10, 10, 10, 26, 0, 0, 0, 0, 0, 0, 0
   \              0A0A0A1A0000
   \              0000000000  
   \   00000975   00003C3C3C3C       DC8 0, 0, 60, 60, 60, 60, 0, 0, 0, 0, 0, 0, 0, 0, 0, 0, 0, 0, 0, 0, 0
   \              000000000000
   \              000000000000
   \              000000      
   \   0000098A   00E0301030E0       DC8 0, 224, 48, 16, 48, 224, 0, 0, 0, 0, 16, 48, 16, 16, 16, 56, 0, 0
   \              000000001030
   \              101010380000
   \   0000099C   000000000000       DC8 0, 0, 0, 0, 0, 0, 96, 240, 144, 240, 96, 0, 240, 0, 0, 0, 0, 0, 0
   \              60F090F06000
   \              F00000000000
   \              00          
   \   000009AF   000000000000       DC8 0, 0, 0, 0, 0, 0, 0, 216, 108, 54, 27, 54, 108, 216, 0, 0, 0, 0, 0
   \              00D86C361B36
   \              6CD800000000
   \              00          
   \   000009C2   000040C04244       DC8 0, 0, 64, 192, 66, 68, 74, 86, 42, 82, 158, 2, 0, 0, 0, 0, 0, 0, 64
   \              4A562A529E02
   \              000000000000
   \              40          
   \   000009D5   C042444E5A22       DC8 192, 66, 68, 78, 90, 34, 68, 136, 14, 0, 0, 0, 0, 0, 0, 48, 72, 17
   \              44880E000000
   \              000000304811
   \   000009E7   0A4D3B15294F       DC8 10, 77, 59, 21, 41, 79, 1, 0, 0, 0, 0, 0, 0, 24, 24, 0, 24, 24, 112
   \              010000000000
   \              001818001818
   \              70          
   \   000009FA   C0C6C67C0000       DC8 192, 198, 198, 124, 0, 0, 0, 96, 16, 0, 16, 56, 108, 198, 198, 254
   \              006010001038
   \              6CC6C6FE    
   \   00000A0A   C6C6C6C60000       DC8 198, 198, 198, 198, 0, 0, 0, 12, 16, 0, 16, 56, 108, 198, 198, 254
   \              000C10001038
   \              6CC6C6FE    
   \   00000A1A   C6C6C6C60000       DC8 198, 198, 198, 198, 0, 0, 0, 48, 72, 0, 16, 56, 108, 198, 198, 254
   \              003048001038
   \              6CC6C6FE    
   \   00000A2A   C6C6C6C60000       DC8 198, 198, 198, 198, 0, 0, 0, 114, 156, 0, 16, 56, 108, 198, 198
   \              00729C001038
   \              6CC6C6      
   \   00000A39   FEC6C6C6C600       DC8 254, 198, 198, 198, 198, 0, 0, 0, 68, 68, 0, 16, 56, 108, 198, 198
   \              000044440010
   \              386CC6C6    
   \   00000A49   FEC6C6C6C600       DC8 254, 198, 198, 198, 198, 0, 0, 0, 48, 72, 0, 16, 56, 108, 198, 198
   \              000030480010
   \              386CC6C6    
   \   00000A59   FEC6C6C6C600       DC8 254, 198, 198, 198, 198, 0, 0, 0, 0, 0, 0, 30, 62, 104, 202, 206
   \              00000000001E
   \              3E68CACE    
   \   00000A69   FAC8C8CECE00       DC8 250, 200, 200, 206, 206, 0, 0, 0, 0, 0, 60, 102, 194, 192, 192, 192
   \              000000003C66
   \              C2C0C0C0    
   \   00000A79   C2663C187000       DC8 194, 102, 60, 24, 112, 0, 0, 0, 96, 16, 0, 126, 102, 98, 104, 120
   \              00006010007E
   \              66626878    
   \   00000A89   686062667E00       DC8 104, 96, 98, 102, 126, 0, 0, 0, 12, 16, 0, 254, 102, 98, 104, 120
   \              00000C1000FE
   \              66626878    
   \   00000A99   68606266FE00       DC8 104, 96, 98, 102, 254, 0, 0, 0, 48, 72, 0, 254, 102, 98, 104, 120
   \              0000304800FE
   \              66626878    
   \   00000AA9   68606266FE00       DC8 104, 96, 98, 102, 254, 0, 0, 0, 68, 68, 0, 254, 102, 98, 104, 120
   \              0000444400FE
   \              66626878    
   \   00000AB9   68606266FE00       DC8 104, 96, 98, 102, 254, 0, 0, 0, 96, 16, 0, 120, 48, 48, 48, 48, 48
   \              000060100078
   \              3030303030  
   \   00000ACA   303030780000       DC8 48, 48, 48, 120, 0, 0, 0, 24, 32, 0, 120, 48, 48, 48, 48, 48, 48
   \              001820007830
   \              3030303030  
   \   00000ADB   303078000000       DC8 48, 48, 120, 0, 0, 0, 48, 72, 0, 120, 48, 48, 48, 48, 48, 48, 48
   \              304800783030
   \              3030303030  
   \   00000AEC   307800000048       DC8 48, 120, 0, 0, 0, 72, 72, 0, 120, 48, 48, 48, 48, 48, 48, 48, 48
   \              480078303030
   \              3030303030  
   \   00000AFD   78000000F86C       DC8 120, 0, 0, 0, 248, 108, 102, 102, 102, 246, 246, 102, 102, 102, 102
   \              666666F6F666
   \              666666      
   \   00000B0C   6CF800000072       DC8 108, 248, 0, 0, 0, 114, 156, 0, 198, 230, 230, 246, 246, 254, 222
   \              9C00C6E6E6F6
   \              F6FEDE      
   \   00000B1B   CECEC6000000       DC8 206, 206, 198, 0, 0, 0, 96, 16, 0, 56, 108, 198, 198, 198, 198, 198
   \              601000386CC6
   \              C6C6C6C6    
   \   00000B2B   C66C38000000       DC8 198, 108, 56, 0, 0, 0, 12, 16, 0, 56, 108, 198, 198, 198, 198, 198
   \              0C1000386CC6
   \              C6C6C6C6    
   \   00000B3B   C66C38000000       DC8 198, 108, 56, 0, 0, 0, 48, 72, 0, 56, 108, 198, 198, 198, 198, 198
   \              304800386CC6
   \              C6C6C6C6    
   \   00000B4B   C66C38000000       DC8 198, 108, 56, 0, 0, 0, 114, 156, 0, 56, 108, 198, 198, 198, 198
   \              729C00386CC6
   \              C6C6C6      
   \   00000B5A   C6C66C380000       DC8 198, 198, 108, 56, 0, 0, 0, 68, 68, 0, 56, 108, 198, 198, 198, 198
   \              00444400386C
   \              C6C6C6C6    
   \   00000B6A   C6C66C380000       DC8 198, 198, 108, 56, 0, 0, 0, 0, 0, 0, 0, 0, 130, 198, 108, 56, 56
   \              000000000000
   \              82C66C3838  
   \   00000B7B   6CC682000000       DC8 108, 198, 130, 0, 0, 0, 0, 0, 0, 58, 108, 198, 206, 214, 214, 230
   \              0000003A6CC6
   \              CED6D6E6    
   \   00000B8B   C66CB8000000       DC8 198, 108, 184, 0, 0, 0, 96, 16, 0, 198, 198, 198, 198, 198, 198
   \              601000C6C6C6
   \              C6C6C6      
   \   00000B9A   C6C6C67C0000       DC8 198, 198, 198, 124, 0, 0, 0, 12, 16, 0, 198, 198, 198, 198, 198
   \              000C1000C6C6
   \              C6C6C6      
   \   00000BA9   C6C6C6C67C00       DC8 198, 198, 198, 198, 124, 0, 0, 0, 48, 72, 0, 198, 198, 198, 198
   \              0000304800C6
   \              C6C6C6      
   \   00000BB8   C6C6C6C6C67C       DC8 198, 198, 198, 198, 198, 124, 0, 0, 0, 68, 68, 0, 198, 198, 198
   \              000000444400
   \              C6C6C6      
   \   00000BC7   C6C6C6C6C6C6       DC8 198, 198, 198, 198, 198, 198, 124, 0, 0, 0, 12, 16, 0, 198, 198, 68
   \              7C0000000C10
   \              00C6C644    
   \   00000BD7   6C3810101010       DC8 108, 56, 16, 16, 16, 16, 56, 0, 0, 0, 0, 0, 0, 192, 192, 252, 198
   \              380000000000
   \              00C0C0FCC6  
   \   00000BE8   C6C6FCC0C0E0       DC8 198, 198, 252, 192, 192, 224, 0, 0, 0, 0, 56, 204, 204, 204, 204
   \              0000000038CC
   \              CCCCCC      
   \   00000BF7   D8CCCCCCCCCC       DC8 216, 204, 204, 204, 204, 204, 216, 0, 0, 0, 0, 0, 0, 96, 16, 0, 120
   \              D80000000000
   \              0060100078  
   \   00000C08   0C7CCCCCCC76       DC8 12, 124, 204, 204, 204, 118, 0, 0, 0, 0, 0, 0, 12, 16, 0, 120, 12
   \              000000000000
   \              0C1000780C  
   \   00000C19   7CCCCCCC7600       DC8 124, 204, 204, 204, 118, 0, 0, 0, 0, 0, 0, 48, 72, 0, 120, 12, 124
   \              000000000030
   \              4800780C7C  
   \   00000C2A   CCCCCC760000       DC8 204, 204, 204, 118, 0, 0, 0, 0, 0, 0, 100, 152, 0, 120, 12, 124
   \              000000006498
   \              00780C7C    
   \   00000C3A   CCCCCC760000       DC8 204, 204, 204, 118, 0, 0, 0, 0, 0, 0, 0, 72, 0, 120, 12, 124, 204
   \              000000000048
   \              00780C7CCC  
   \   00000C4B   CCCC76000000       DC8 204, 204, 118, 0, 0, 0, 0, 0, 16, 40, 16, 0, 120, 4, 124, 204, 204
   \              000010281000
   \              78047CCCCC  
   \   00000C5C   CC7600000000       DC8 204, 118, 0, 0, 0, 0, 0, 0, 0, 108, 146, 18, 18, 124, 144, 144, 146
   \              0000006C9212
   \              127C909092  
   \   00000C6D   6C0000000000       DC8 108, 0, 0, 0, 0, 0, 0, 0, 124, 198, 194, 192, 192, 198, 124, 24
   \              00007CC6C2C0
   \              C0C67C18    
   \   00000C7D   700000000000       DC8 112, 0, 0, 0, 0, 0, 0, 96, 16, 0, 124, 198, 198, 254, 192, 198, 124
   \              006010007CC6
   \              C6FEC0C67C  
   \   00000C8E   000000000000       DC8 0, 0, 0, 0, 0, 0, 12, 16, 0, 124, 198, 198, 254, 192, 198, 124, 0
   \              0C10007CC6C6
   \              FEC0C67C00  
   \   00000C9F   000000000030       DC8 0, 0, 0, 0, 0, 48, 72, 0, 124, 198, 198, 254, 192, 198, 124, 0, 0
   \              48007CC6C6FE
   \              C0C67C0000  
   \   00000CB0   000000000044       DC8 0, 0, 0, 0, 0, 68, 0, 124, 198, 194, 254, 192, 198, 124, 0, 0, 0, 0
   \              007CC6C2FEC0
   \              C67C00000000
   \   00000CC2   0000C0200070       DC8 0, 0, 192, 32, 0, 112, 48, 48, 48, 48, 48, 120, 0, 0, 0, 0, 0, 0
   \              303030303078
   \              000000000000
   \   00000CD4   182000703030       DC8 24, 32, 0, 112, 48, 48, 48, 48, 48, 120, 0, 0, 0, 0, 0, 0, 48, 72
   \              303030780000
   \              000000003048
   \   00000CE6   007030303030       DC8 0, 112, 48, 48, 48, 48, 48, 120, 0, 0, 0, 0, 0, 0, 0, 72, 0, 112
   \              307800000000
   \              000000480070
   \   00000CF8   303030303078       DC8 48, 48, 48, 48, 48, 120, 0, 0, 0, 0, 0, 0, 44, 16, 104, 4, 124, 198
   \              000000000000
   \              2C1068047CC6
   \   00000D0A   C6C6C67C0000       DC8 198, 198, 198, 124, 0, 0, 0, 0, 0, 0, 100, 152, 0, 220, 102, 102
   \              000000006498
   \              00DC6666    
   \   00000D1A   666666660000       DC8 102, 102, 102, 102, 0, 0, 0, 0, 0, 0, 96, 16, 0, 124, 198, 198, 198
   \              000000006010
   \              007CC6C6C6  
   \   00000D2B   C6C67C000000       DC8 198, 198, 124, 0, 0, 0, 0, 0, 0, 12, 16, 0, 124, 198, 198, 198, 198
   \              0000000C1000
   \              7CC6C6C6C6  
   \   00000D3C   C67C00000000       DC8 198, 124, 0, 0, 0, 0, 0, 0, 48, 72, 0, 124, 198, 198, 198, 198, 198
   \              00003048007C
   \              C6C6C6C6C6  
   \   00000D4D   7C0000000000       DC8 124, 0, 0, 0, 0, 0, 0, 100, 152, 0, 124, 198, 198, 198, 198, 198
   \              006498007CC6
   \              C6C6C6C6    
   \   00000D5D   7C0000000000       DC8 124, 0, 0, 0, 0, 0, 0, 0, 68, 0, 124, 198, 198, 198, 198, 198, 124
   \              000044007CC6
   \              C6C6C6C67C  
   \   00000D6E   000000000000       DC8 0, 0, 0, 0, 0, 0, 48, 48, 0, 0, 254, 254, 0, 0, 48, 48, 0, 0, 0, 0
   \              30300000FEFE
   \              000030300000
   \              0000        
   \   00000D82   00000000003A       DC8 0, 0, 0, 0, 0, 58, 198, 138, 146, 162, 198, 184, 0, 0, 168, 80, 168
   \              C68A92A2C6B8
   \              0000A850A8  
   \   00000D93   50A850A80000       DC8 80, 168, 80, 168, 0, 0, 0, 0, 0, 0, 0, 0, 0, 0, 0, 0, 0, 12, 16, 0
   \              000000000000
   \              00000000000C
   \              1000        
   \   00000DA7   CCCCCCCCCCCC       DC8 204, 204, 204, 204, 204, 204, 118, 0, 0, 0, 0, 0, 0, 48, 72, 0, 204
   \              760000000000
   \              00304800CC  
   \   00000DB8   CCCCCCCCCC76       DC8 204, 204, 204, 204, 204, 118, 0, 0, 0, 0, 0, 0, 0, 72, 0, 204, 204
   \              000000000000
   \              004800CCCC  
   \   00000DC9   CCCCCCCC7600       DC8 204, 204, 204, 204, 118, 0, 0, 0, 0, 0, 12, 16, 0, 198, 198, 68
   \              000000000C10
   \              00C6C644    
   \   00000DD9   6C3838101020       DC8 108, 56, 56, 16, 16, 32, 192, 0, 0, 0, 192, 192, 220, 230, 198, 198
   \              C0000000C0C0
   \              DCE6C6C6    
   \   00000DE9   C6E6DCC0C0C0       DC8 198, 230, 220, 192, 192, 192, 192, 0, 0, 68, 68, 0, 0, 198, 198, 68
   \              C00000444400
   \              00C6C644    
   \   00000DF9   6C3838101020       DC8 108, 56, 56, 16, 16, 32, 192
   \              C0          
    138          	0x00, 0x00, 0x00, 0x00, 0x00, 0x00, 0x00, 0x00, 0x00, 0x00, 0x00, 0x00, 0x00, 0x00, 0x00, 0x00, 
    139          	0x00, 0x18, 0x18, 0x3C, 0x3C, 0x3C, 0x3C, 0x18, 0x18, 0x18, 0x00, 0x00, 0x18, 0x18, 0x00, 0x00, 
    140          	0x00, 0xC6, 0xC6, 0xC6, 0x44, 0x00, 0x00, 0x00, 0x00, 0x00, 0x00, 0x00, 0x00, 0x00, 0x00, 0x00, 
    141          	0x00, 0x6C, 0x6C, 0x6C, 0xFE, 0xFE, 0x6C, 0x6C, 0x6C, 0xFE, 0xFE, 0x6C, 0x6C, 0x6C, 0x00, 0x00, 
    142          	0x00, 0x18, 0x18, 0x7C, 0xC6, 0xC2, 0xC0, 0x7C, 0x06, 0x86, 0xC6, 0x7C, 0x18, 0x18, 0x00, 0x00, 
    143          	0x00, 0x06, 0xC6, 0xCC, 0x0C, 0x18, 0x18, 0x30, 0x30, 0x30, 0x60, 0x66, 0xC6, 0xC0, 0x00, 0x00, 
    144          	0x00, 0x00, 0x70, 0xD8, 0x88, 0xD8, 0x70, 0x60, 0x70, 0xDA, 0xCE, 0xCC, 0x7E, 0x32, 0x00, 0x00, 
    145          	0x00, 0x60, 0x60, 0x60, 0xC0, 0x00, 0x00, 0x00, 0x00, 0x00, 0x00, 0x00, 0x00, 0x00, 0x00, 0x00, 
    146          	0x00, 0x18, 0x30, 0x30, 0x60, 0x60, 0x60, 0x60, 0x60, 0x60, 0x60, 0x30, 0x30, 0x18, 0x00, 0x00, 
    147          	0x00, 0x30, 0x18, 0x18, 0x0C, 0x0C, 0x0C, 0x0C, 0x0C, 0x0C, 0x0C, 0x18, 0x18, 0x30, 0x00, 0x00, 
    148          	0x00, 0x00, 0x00, 0x00, 0x82, 0x44, 0x28, 0xFE, 0x28, 0x44, 0x82, 0x00, 0x00, 0x00, 0x00, 0x00, 
    149          	0x00, 0x00, 0x00, 0x00, 0x10, 0x10, 0x10, 0xFE, 0x10, 0x10, 0x10, 0x00, 0x00, 0x00, 0x00, 0x00, 
    150          	0x00, 0x00, 0x00, 0x00, 0x00, 0x00, 0x00, 0x00, 0x00, 0x00, 0x30, 0x30, 0x30, 0x60, 0x00, 0x00, 
    151          	0x00, 0x00, 0x00, 0x00, 0x00, 0x00, 0x00, 0xFE, 0xFE, 0x00, 0x00, 0x00, 0x00, 0x00, 0x00, 0x00, 
    152          	0x00, 0x00, 0x00, 0x00, 0x00, 0x00, 0x00, 0x00, 0x00, 0x00, 0x00, 0x00, 0x30, 0x30, 0x00, 0x00, 
    153          	0x00, 0x06, 0x06, 0x0C, 0x0C, 0x18, 0x18, 0x30, 0x30, 0x30, 0x60, 0x60, 0xC0, 0xC0, 0x00, 0x00, 
    154          	0x00, 0x7C, 0xC6, 0xC6, 0xC6, 0xCE, 0xDE, 0xF6, 0xE6, 0xC6, 0xC6, 0xC6, 0xC6, 0x7C, 0x00, 0x00, 
    155          	0x00, 0x18, 0x38, 0x78, 0x18, 0x18, 0x18, 0x18, 0x18, 0x18, 0x18, 0x18, 0x18, 0x7E, 0x00, 0x00, 
    156          	0x00, 0x7C, 0xC6, 0x86, 0x06, 0x06, 0x0C, 0x18, 0x30, 0x60, 0xC0, 0xC0, 0xC0, 0xFE, 0x00, 0x00, 
    157          	0x00, 0x7C, 0xC6, 0x06, 0x06, 0x06, 0x06, 0x3C, 0x06, 0x06, 0x06, 0x06, 0xC6, 0x7C, 0x00, 0x00, 
    158          	0x00, 0x0C, 0x0C, 0x1C, 0x3C, 0x6C, 0xCC, 0xCC, 0xCC, 0xFE, 0x0C, 0x0C, 0x0C, 0x1E, 0x00, 0x00, 
    159          	0x00, 0xFE, 0xC0, 0xC0, 0xC0, 0xC0, 0xFC, 0x06, 0x06, 0x06, 0x06, 0x06, 0xC6, 0x7C, 0x00, 0x00, 
    160          	0x00, 0x38, 0x60, 0xC0, 0xC0, 0xC0, 0xC0, 0xFC, 0xC6, 0xC6, 0xC6, 0xC6, 0xC6, 0x7C, 0x00, 0x00, 
    161          	0x00, 0xFE, 0xC6, 0x06, 0x06, 0x06, 0x0C, 0x30, 0x30, 0x30, 0x30, 0x30, 0x30, 0x30, 0x00, 0x00, 
    162          	0x00, 0x7C, 0xC6, 0xC6, 0xC6, 0xC6, 0xC6, 0x7C, 0xC6, 0xC6, 0xC6, 0xC6, 0xC6, 0x7C, 0x00, 0x00, 
    163          	0x00, 0x7C, 0xC6, 0xC6, 0xC6, 0xC6, 0xC6, 0x7E, 0x06, 0x06, 0x06, 0x06, 0x0C, 0x78, 0x00, 0x00, 
    164          	0x00, 0x00, 0x00, 0x00, 0x30, 0x30, 0x00, 0x00, 0x00, 0x30, 0x30, 0x00, 0x00, 0x00, 0x00, 0x00, 
    165          	0x00, 0x00, 0x00, 0x00, 0x30, 0x30, 0x00, 0x00, 0x00, 0x30, 0x30, 0x30, 0x60, 0x00, 0x00, 0x00, 
    166          	0x00, 0x00, 0x06, 0x0C, 0x18, 0x30, 0x60, 0xC0, 0x60, 0x30, 0x18, 0x0C, 0x06, 0x00, 0x00, 0x00, 
    167          	0x00, 0x00, 0x00, 0x00, 0x00, 0x00, 0xFC, 0x00, 0x00, 0xFC, 0x00, 0x00, 0x00, 0x00, 0x00, 0x00, 
    168          	0x00, 0x00, 0xC0, 0x60, 0x30, 0x18, 0x0C, 0x06, 0x0C, 0x18, 0x30, 0x60, 0xC0, 0x00, 0x00, 0x00, 
    169          	0x00, 0x38, 0x7C, 0xC6, 0xC6, 0x0C, 0x18, 0x18, 0x18, 0x18, 0x00, 0x00, 0x18, 0x18, 0x00, 0x00, 
    170          	0x00, 0x38, 0x7C, 0xEE, 0xC6, 0xDE, 0xDE, 0xD6, 0xDE, 0xDC, 0xC0, 0xE6, 0x7E, 0x3C, 0x00, 0x00, 
    171          	0x00, 0x10, 0x38, 0x6C, 0xC6, 0xC6, 0xC6, 0xFE, 0xC6, 0xC6, 0xC6, 0xC6, 0xC6, 0xC6, 0x00, 0x00, 
    172          	0x00, 0xFC, 0x66, 0x66, 0x66, 0x66, 0x66, 0x7C, 0x66, 0x66, 0x66, 0x66, 0x66, 0xFC, 0x00, 0x00, 
    173          	0x00, 0x3C, 0x66, 0xC2, 0xC0, 0xC0, 0xC0, 0xC0, 0xC0, 0xC0, 0xC0, 0xC2, 0x66, 0x3C, 0x00, 0x00, 
    174          	0x00, 0xF8, 0x6C, 0x66, 0x66, 0x66, 0x66, 0x66, 0x66, 0x66, 0x66, 0x66, 0x6C, 0xF8, 0x00, 0x00, 
    175          	0x00, 0xFE, 0x66, 0x62, 0x60, 0x60, 0x68, 0x78, 0x68, 0x60, 0x60, 0x62, 0x66, 0xFE, 0x00, 0x00, 
    176          	0x00, 0xFE, 0x66, 0x62, 0x60, 0x60, 0x68, 0x78, 0x68, 0x60, 0x60, 0x60, 0x60, 0xF0, 0x00, 0x00, 
    177          	0x00, 0x3C, 0x66, 0xC2, 0xC0, 0xC0, 0xC0, 0xC0, 0xDE, 0xC6, 0xC6, 0xC6, 0x66, 0x3A, 0x00, 0x00, 
    178          	0x00, 0xC6, 0xC6, 0xC6, 0xC6, 0xC6, 0xC6, 0xFE, 0xC6, 0xC6, 0xC6, 0xC6, 0xC6, 0xC6, 0x00, 0x00, 
    179          	0x00, 0x78, 0x30, 0x30, 0x30, 0x30, 0x30, 0x30, 0x30, 0x30, 0x30, 0x30, 0x30, 0x78, 0x00, 0x00, 
    180          	0x00, 0x1E, 0x0C, 0x0C, 0x0C, 0x0C, 0x0C, 0x0C, 0x0C, 0x0C, 0x0C, 0xCC, 0xCC, 0x78, 0x00, 0x00, 
    181          	0x00, 0xE6, 0x66, 0x66, 0x6C, 0x6C, 0x68, 0x78, 0x68, 0x6C, 0x6C, 0x66, 0x66, 0xE6, 0x00, 0x00, 
    182          	0x00, 0xF0, 0x60, 0x60, 0x60, 0x60, 0x60, 0x60, 0x60, 0x60, 0x60, 0x62, 0x66, 0xFE, 0x00, 0x00, 
    183          	0x00, 0xC6, 0xC6, 0xC6, 0xEE, 0xFE, 0xD6, 0xC6, 0xC6, 0xC6, 0xC6, 0xC6, 0xC6, 0xC6, 0x00, 0x00, 
    184          	0x00, 0xC6, 0xC6, 0xC6, 0xE6, 0xF6, 0xFE, 0xDE, 0xCE, 0xCE, 0xC6, 0xC6, 0xC6, 0xC6, 0x00, 0x00, 
    185          	0x00, 0x38, 0x6C, 0xC6, 0xC6, 0xC6, 0xC6, 0xC6, 0xC6, 0xC6, 0xC6, 0xC6, 0x6C, 0x38, 0x00, 0x00, 
    186          	0x00, 0xFC, 0x66, 0x66, 0x66, 0x66, 0x66, 0x7C, 0x60, 0x60, 0x60, 0x60, 0x60, 0xF0, 0x00, 0x00, 
    187          	0x00, 0x7C, 0xC6, 0xC6, 0xC6, 0xC6, 0xC6, 0xC6, 0xC6, 0xDE, 0xC6, 0x7C, 0x0C, 0x0E, 0x00, 0x00, 
    188          	0x00, 0xFC, 0x66, 0x66, 0x66, 0x66, 0x66, 0x7C, 0x78, 0x6C, 0x66, 0x66, 0x66, 0xE6, 0x00, 0x00, 
    189          	0x00, 0x7C, 0xC6, 0xC6, 0xC0, 0xC0, 0x60, 0x38, 0x0C, 0x06, 0x06, 0xC6, 0xC6, 0x7C, 0x00, 0x00, 
    190          	0x00, 0xFE, 0xB2, 0x30, 0x30, 0x30, 0x30, 0x30, 0x30, 0x30, 0x30, 0x30, 0x30, 0x78, 0x00, 0x00, 
    191          	0x00, 0xC6, 0xC6, 0xC6, 0xC6, 0xC6, 0xC6, 0xC6, 0xC6, 0xC6, 0xC6, 0xC6, 0xC6, 0x7C, 0x00, 0x00, 
    192          	0x00, 0xC6, 0xC6, 0xC6, 0xC6, 0xC6, 0xC6, 0xC6, 0xC6, 0xC6, 0xC6, 0x6C, 0x38, 0x10, 0x00, 0x00, 
    193          	0x00, 0xC6, 0xC6, 0xC6, 0xC6, 0xC6, 0xC6, 0xC6, 0xD6, 0xFE, 0xFE, 0xEE, 0xC6, 0xC6, 0x00, 0x00, 
    194          	0x00, 0xC6, 0xC6, 0xC6, 0xC6, 0xC6, 0x6C, 0x38, 0x6C, 0xC6, 0xC6, 0xC6, 0xC6, 0xC6, 0x00, 0x00, 
    195          	0x00, 0xC6, 0xC6, 0xC6, 0xC6, 0xC6, 0x6C, 0x38, 0x38, 0x38, 0x38, 0x38, 0x38, 0x7C, 0x00, 0x00, 
    196          	0x00, 0xFE, 0xC6, 0x86, 0x06, 0x0C, 0x18, 0x30, 0x60, 0xC0, 0xC0, 0xC2, 0xC6, 0xFE, 0x00, 0x00, 
    197          	0x00, 0x78, 0x60, 0x60, 0x60, 0x60, 0x60, 0x60, 0x60, 0x60, 0x60, 0x60, 0x60, 0x78, 0x00, 0x00, 
    198          	0x00, 0xC0, 0xC0, 0x60, 0x60, 0x30, 0x30, 0x18, 0x18, 0x18, 0x0C, 0x0C, 0x06, 0x06, 0x00, 0x00, 
    199          	0x00, 0x78, 0x18, 0x18, 0x18, 0x18, 0x18, 0x18, 0x18, 0x18, 0x18, 0x18, 0x18, 0x78, 0x00, 0x00, 
    200          	0x00, 0x10, 0x38, 0x6C, 0xC6, 0x00, 0x00, 0x00, 0x00, 0x00, 0x00, 0x00, 0x00, 0x00, 0x00, 0x00, 
    201          	0x00, 0x00, 0x00, 0x00, 0x00, 0x00, 0x00, 0x00, 0x00, 0x00, 0x00, 0x00, 0x00, 0xFE, 0xFE, 0x00, 
    202          	0x00, 0x30, 0x30, 0x30, 0x18, 0x00, 0x00, 0x00, 0x00, 0x00, 0x00, 0x00, 0x00, 0x00, 0x00, 0x00, 
    203          	0x00, 0x00, 0x00, 0x00, 0x00, 0x00, 0x78, 0x0C, 0x0C, 0x7C, 0xCC, 0xCC, 0xCC, 0x76, 0x00, 0x00, 
    204          	0x00, 0xE0, 0x60, 0x60, 0x60, 0x60, 0x60, 0x78, 0x6C, 0x66, 0x66, 0x66, 0x66, 0xDC, 0x00, 0x00, 
    205          	0x00, 0x00, 0x00, 0x00, 0x00, 0x00, 0x7C, 0xC6, 0xC0, 0xC0, 0xC0, 0xC0, 0xC6, 0x7C, 0x00, 0x00, 
    206          	0x00, 0x1C, 0x0C, 0x0C, 0x0C, 0x0C, 0x0C, 0x3C, 0x6C, 0xCC, 0xCC, 0xCC, 0xCC, 0x76, 0x00, 0x00, 
    207          	0x00, 0x00, 0x00, 0x00, 0x00, 0x00, 0x7C, 0xC6, 0xC6, 0xFE, 0xC0, 0xC0, 0xC6, 0x7C, 0x00, 0x00, 
    208          	0x00, 0x38, 0x6C, 0x64, 0x60, 0x60, 0x60, 0xF8, 0x60, 0x60, 0x60, 0x60, 0x60, 0xF0, 0x00, 0x00, 
    209          	0x00, 0x00, 0x00, 0x00, 0x00, 0x00, 0x76, 0xCC, 0xCC, 0xCC, 0xCC, 0x7C, 0x0C, 0x0C, 0xCC, 0x78, 
    210          	0x00, 0xE0, 0x60, 0x60, 0x60, 0x60, 0x6C, 0x7E, 0x66, 0x66, 0x66, 0x66, 0x66, 0xE6, 0x00, 0x00, 
    211          	0x00, 0x00, 0x00, 0x18, 0x18, 0x00, 0x38, 0x18, 0x18, 0x18, 0x18, 0x18, 0x18, 0x3C, 0x00, 0x00, 
    212          	0x00, 0x00, 0x00, 0x0C, 0x0C, 0x00, 0x1C, 0x0C, 0x0C, 0x0C, 0x0C, 0x0C, 0xCC, 0xCC, 0xCC, 0x78, 
    213          	0x00, 0xE0, 0x60, 0x60, 0x60, 0x60, 0x60, 0x66, 0x6C, 0x78, 0x70, 0x78, 0x6C, 0xE6, 0x00, 0x00, 
    214          	0x00, 0x38, 0x18, 0x18, 0x18, 0x18, 0x18, 0x18, 0x18, 0x18, 0x18, 0x18, 0x18, 0x3C, 0x00, 0x00, 
    215          	0x00, 0x00, 0x00, 0x00, 0x00, 0x00, 0x44, 0xFE, 0xD6, 0xD6, 0xD6, 0xD6, 0xD6, 0xD6, 0x00, 0x00, 
    216          	0x00, 0x00, 0x00, 0x00, 0x00, 0x00, 0xDC, 0x66, 0x66, 0x66, 0x66, 0x66, 0x66, 0x66, 0x00, 0x00, 
    217          	0x00, 0x00, 0x00, 0x00, 0x00, 0x00, 0x7C, 0xC6, 0xC6, 0xC6, 0xC6, 0xC6, 0xC6, 0x7C, 0x00, 0x00, 
    218          	0x00, 0x00, 0x00, 0x00, 0x00, 0x00, 0xDC, 0x66, 0x66, 0x66, 0x66, 0x7C, 0x60, 0x60, 0x60, 0xF0, 
    219          	0x00, 0x00, 0x00, 0x00, 0x00, 0x00, 0x76, 0xCC, 0xCC, 0xCC, 0xCC, 0x7C, 0x0C, 0x0C, 0x0C, 0x1E, 
    220          	0x00, 0x00, 0x00, 0x00, 0x00, 0x00, 0xDC, 0x76, 0x66, 0x60, 0x60, 0x60, 0x60, 0xF0, 0x00, 0x00, 
    221          	0x00, 0x00, 0x00, 0x00, 0x00, 0x00, 0x7C, 0xC6, 0xC6, 0x70, 0x1C, 0xC6, 0xC6, 0x7C, 0x00, 0x00, 
    222          	0x00, 0x10, 0x30, 0x30, 0x30, 0x30, 0xFC, 0x30, 0x30, 0x30, 0x30, 0x36, 0x36, 0x1C, 0x00, 0x00, 
    223          	0x00, 0x00, 0x00, 0x00, 0x00, 0x00, 0xCC, 0xCC, 0xCC, 0xCC, 0xCC, 0xCC, 0xCC, 0x76, 0x00, 0x00, 
    224          	0x00, 0x00, 0x00, 0x00, 0x00, 0x00, 0xC6, 0xC6, 0xC6, 0xC6, 0x6C, 0x6C, 0x38, 0x10, 0x00, 0x00, 
    225          	0x00, 0x00, 0x00, 0x00, 0x00, 0x00, 0xC6, 0xC6, 0xC6, 0xC6, 0xC6, 0xD6, 0xFE, 0x6C, 0x00, 0x00, 
    226          	0x00, 0x00, 0x00, 0x00, 0x00, 0x00, 0xC6, 0xC6, 0x6C, 0x38, 0x38, 0x6C, 0xC6, 0xC6, 0x00, 0x00, 
    227          	0x00, 0x00, 0x00, 0x00, 0x00, 0x00, 0xC6, 0xC6, 0xC6, 0xC6, 0x7E, 0x06, 0x06, 0x06, 0x0C, 0x78, 
    228          	0x00, 0x00, 0x00, 0x00, 0x00, 0x00, 0xFE, 0xC6, 0x0C, 0x18, 0x30, 0x60, 0xC6, 0xFE, 0x00, 0x00, 
    229          	0x00, 0x1C, 0x30, 0x30, 0x30, 0x30, 0x30, 0xE0, 0x30, 0x30, 0x30, 0x30, 0x30, 0x1C, 0x00, 0x00, 
    230          	0x00, 0x30, 0x30, 0x30, 0x30, 0x30, 0x30, 0x00, 0x30, 0x30, 0x30, 0x30, 0x30, 0x30, 0x00, 0x00, 
    231          	0x00, 0xE0, 0x30, 0x30, 0x30, 0x30, 0x30, 0x1C, 0x30, 0x30, 0x30, 0x30, 0x30, 0xE0, 0x00, 0x00, 
    232          	0x00, 0x00, 0x00, 0x76, 0xDC, 0x00, 0x00, 0x00, 0x00, 0x00, 0x00, 0x00, 0x00, 0x00, 0x00, 0x00, 
    233          	0x00, 0x00, 0x00, 0x00, 0x00, 0x00, 0x00, 0x00, 0x00, 0x00, 0x00, 0x00, 0x00, 0x00, 0x00, 0x00, 
    234          	0x00, 0x1C, 0x32, 0x60, 0x60, 0x60, 0xFE, 0x60, 0xFE, 0x60, 0x60, 0x60, 0x32, 0x1C, 0x00, 0x00, 
    235          	0x00, 0x00, 0x00, 0x00, 0x00, 0x00, 0x00, 0x00, 0x00, 0x00, 0x00, 0x00, 0x00, 0x00, 0x00, 0x00, 
    236          	0x00, 0x00, 0x00, 0x00, 0x00, 0x00, 0x00, 0x00, 0x00, 0x00, 0x60, 0x60, 0x60, 0xC0, 0x00, 0x00, 
    237          	0x00, 0x0E, 0x18, 0x30, 0x30, 0x30, 0x7C, 0x7C, 0x30, 0x30, 0x30, 0x30, 0x30, 0x60, 0xC0, 0x00, 
    238          	0x00, 0x00, 0x00, 0x00, 0x00, 0x00, 0x00, 0x00, 0x00, 0x00, 0x6C, 0x6C, 0x6C, 0xD8, 0x00, 0x00, 
    239          	0x00, 0x00, 0x00, 0x00, 0x00, 0x00, 0x00, 0x00, 0x00, 0x00, 0x00, 0x54, 0x54, 0x00, 0x00, 0x00, 
    240          	0x00, 0x18, 0x18, 0x18, 0x18, 0x7E, 0x7E, 0x18, 0x18, 0x18, 0x18, 0x18, 0x18, 0x18, 0x00, 0x00, 
    241          	0x00, 0x18, 0x18, 0x18, 0x7E, 0x7E, 0x18, 0x18, 0x7E, 0x7E, 0x18, 0x18, 0x18, 0x18, 0x00, 0x00, 
    242          	0x00, 0x38, 0x6C, 0x00, 0x00, 0x00, 0x00, 0x00, 0x00, 0x00, 0x00, 0x00, 0x00, 0x00, 0x00, 0x00, 
    243          	0x00, 0xE0, 0xA2, 0xA4, 0xA8, 0xF0, 0x20, 0x40, 0x80, 0xEE, 0xAA, 0xAA, 0xAA, 0xEE, 0x00, 0x00, 
    244          	0x00, 0x6C, 0x28, 0x10, 0x00, 0x7C, 0xC6, 0xC6, 0xC0, 0x7C, 0x06, 0xC6, 0xC6, 0x7C, 0x00, 0x00, 
    245          	0x00, 0x00, 0x00, 0x00, 0x00, 0x00, 0x10, 0x30, 0x60, 0x60, 0x30, 0x10, 0x00, 0x00, 0x00, 0x00, 
    246          	0x00, 0x7E, 0xDA, 0xC8, 0xC8, 0xC8, 0xCA, 0xCE, 0xCA, 0xC8, 0xC8, 0xC8, 0xDA, 0x7E, 0x00, 0x00, 
    247          	0x00, 0x00, 0x00, 0x00, 0x00, 0x00, 0x00, 0x00, 0x00, 0x00, 0x00, 0x00, 0x00, 0x00, 0x00, 0x00, 
    248          	0x00, 0x6C, 0x28, 0x10, 0x00, 0xFC, 0x8C, 0x0C, 0x18, 0x30, 0x60, 0xC0, 0xC4, 0xFC, 0x00, 0x00, 
    249          	0x00, 0x00, 0x00, 0x00, 0x00, 0x00, 0x00, 0x00, 0x00, 0x00, 0x00, 0x00, 0x00, 0x00, 0x00, 0x00, 
    250          	0x00, 0x00, 0x00, 0x00, 0x00, 0x00, 0x00, 0x00, 0x00, 0x00, 0x00, 0x00, 0x00, 0x00, 0x00, 0x00, 
    251          	0x00, 0x60, 0x60, 0x60, 0x60, 0x30, 0x00, 0x00, 0x00, 0x00, 0x00, 0x00, 0x00, 0x00, 0x00, 0x00, 
    252          	0x00, 0x30, 0x30, 0x30, 0x30, 0x60, 0x00, 0x00, 0x00, 0x00, 0x00, 0x00, 0x00, 0x00, 0x00, 0x00, 
    253          	0x00, 0xD8, 0xD8, 0xD8, 0xD8, 0x6C, 0x00, 0x00, 0x00, 0x00, 0x00, 0x00, 0x00, 0x00, 0x00, 0x00, 
    254          	0x00, 0x6C, 0x6C, 0x6C, 0x6C, 0xD8, 0x00, 0x00, 0x00, 0x00, 0x00, 0x00, 0x00, 0x00, 0x00, 0x00, 
    255          	0x00, 0x00, 0x00, 0x00, 0x00, 0x00, 0x3C, 0x7E, 0x7E, 0x7E, 0x7E, 0x3C, 0x00, 0x00, 0x00, 0x00, 
    256          	0x00, 0x00, 0x00, 0x00, 0x00, 0x00, 0x00, 0x7E, 0x7E, 0x00, 0x00, 0x00, 0x00, 0x00, 0x00, 0x00, 
    257          	0x00, 0x00, 0x00, 0x00, 0x00, 0x00, 0x00, 0xFE, 0xFE, 0x00, 0x00, 0x00, 0x00, 0x00, 0x00, 0x00, 
    258          	0x00, 0x00, 0x00, 0x64, 0x98, 0x00, 0x00, 0x00, 0x00, 0x00, 0x00, 0x00, 0x00, 0x00, 0x00, 0x00, 
    259          	0x00, 0x00, 0x00, 0xFB, 0x5F, 0x55, 0x51, 0x51, 0x00, 0x00, 0x00, 0x00, 0x00, 0x00, 0x00, 0x00, 
    260          	0x00, 0x00, 0x00, 0x6C, 0x38, 0x00, 0x78, 0xC4, 0xE0, 0x78, 0x1C, 0x8C, 0x78, 0x00, 0x00, 0x00, 
    261          	0x00, 0x00, 0x00, 0x00, 0x00, 0x00, 0x40, 0x60, 0x30, 0x30, 0x60, 0x40, 0x00, 0x00, 0x00, 0x00, 
    262          	0x00, 0x00, 0x00, 0x00, 0x00, 0x00, 0x74, 0xCA, 0xD2, 0xDE, 0xD0, 0xC8, 0x76, 0x00, 0x00, 0x00, 
    263          	0x00, 0x00, 0x00, 0x00, 0x00, 0x00, 0x00, 0x00, 0x00, 0x00, 0x00, 0x00, 0x00, 0x00, 0x00, 0x00, 
    264          	0x00, 0x00, 0x00, 0x6C, 0x38, 0x00, 0xFC, 0x0C, 0x18, 0x30, 0x60, 0xC0, 0xFC, 0x00, 0x00, 0x00, 
    265          	0x00, 0x66, 0x66, 0x00, 0xC3, 0xC3, 0x66, 0x66, 0x3C, 0x18, 0x18, 0x18, 0x18, 0x18, 0x00, 0x00, 
    266          	0x00, 0x00, 0x00, 0x00, 0x00, 0x00, 0x00, 0x00, 0x00, 0x00, 0x00, 0x00, 0x00, 0x00, 0x00, 0x00, 
    267          	0x00, 0x00, 0x00, 0x00, 0x30, 0x30, 0x00, 0x30, 0x30, 0x30, 0x30, 0x30, 0x30, 0x30, 0x00, 0x00, 
    268          	0x00, 0x00, 0x00, 0x00, 0x02, 0x7C, 0xCE, 0xC8, 0xD0, 0xD0, 0xE0, 0xE6, 0x7C, 0x80, 0x00, 0x00, 
    269          	0x00, 0x38, 0x6C, 0x60, 0x60, 0x60, 0x60, 0xFE, 0x60, 0x60, 0x60, 0x60, 0xE2, 0xFE, 0x00, 0x00, 
    270          	0x00, 0x00, 0x00, 0x00, 0xB4, 0x78, 0xCC, 0xCC, 0x78, 0xB4, 0x00, 0x00, 0x00, 0x00, 0x00, 0x00, 
    271          	0x00, 0xC6, 0x82, 0x44, 0x44, 0x38, 0x10, 0xFE, 0x10, 0xFE, 0x10, 0x10, 0x10, 0x7C, 0x00, 0x00, 
    272          	0x00, 0x30, 0x30, 0x30, 0x30, 0x30, 0x30, 0x00, 0x00, 0x30, 0x30, 0x30, 0x30, 0x30, 0x00, 0x00, 
    273          	0x00, 0x7C, 0xFC, 0xC0, 0xC0, 0x7C, 0xFE, 0xC6, 0xFE, 0x7C, 0x06, 0x06, 0x7E, 0x7C, 0x00, 0x00, 
    274          	0x00, 0x33, 0x33, 0x00, 0x00, 0x00, 0x00, 0x00, 0x00, 0x00, 0x00, 0x00, 0x00, 0x00, 0x00, 0x00, 
    275          	0x00, 0x00, 0x00, 0x00, 0x38, 0x44, 0x92, 0xAA, 0xA2, 0xA2, 0xAA, 0x92, 0x44, 0x38, 0x00, 0x00, 
    276          	0x00, 0x00, 0x70, 0x18, 0x78, 0xD8, 0xD8, 0x3C, 0x00, 0xF8, 0x00, 0x00, 0x00, 0x00, 0x00, 0x00, 
    277          	0x00, 0x00, 0x00, 0x00, 0x00, 0x08, 0x1A, 0x36, 0x6C, 0xD8, 0x6C, 0x36, 0x1A, 0x08, 0x00, 0x00, 
    278          	0x00, 0x00, 0x00, 0x00, 0x00, 0x00, 0x00, 0xFE, 0xFE, 0x06, 0x06, 0x06, 0x00, 0x00, 0x00, 0x00, 
    279          	0x00, 0x00, 0x00, 0x00, 0x00, 0x00, 0x00, 0x3C, 0x3C, 0x00, 0x00, 0x00, 0x00, 0x00, 0x00, 0x00, 
    280          	0x00, 0x00, 0x00, 0x00, 0x38, 0x44, 0xB2, 0xAA, 0xAA, 0xB2, 0xAA, 0xA6, 0x44, 0x38, 0x00, 0x00, 
    281          	0x00, 0x00, 0x00, 0x00, 0x00, 0x00, 0x00, 0x3C, 0x3C, 0x00, 0x00, 0x00, 0x00, 0x00, 0x00, 0x00, 
    282          	0x00, 0x00, 0x00, 0x60, 0xF0, 0x90, 0xF0, 0x60, 0x00, 0x00, 0x00, 0x00, 0x00, 0x00, 0x00, 0x00, 
    283          	0x00, 0x00, 0x30, 0x30, 0x30, 0x30, 0xFE, 0xFE, 0x30, 0x30, 0x30, 0x00, 0xFE, 0xFE, 0x00, 0x00, 
    284          	0x00, 0x00, 0x70, 0x88, 0x08, 0x10, 0x20, 0x40, 0xF8, 0x00, 0x00, 0x00, 0x00, 0x00, 0x00, 0x00, 
    285          	0x00, 0x00, 0x60, 0x90, 0x10, 0x20, 0x10, 0x90, 0x60, 0x00, 0x00, 0x00, 0x00, 0x00, 0x00, 0x00, 
    286          	0x00, 0x00, 0x18, 0x30, 0x60, 0xC0, 0x00, 0x00, 0x00, 0x00, 0x00, 0x00, 0x00, 0x00, 0x00, 0x00, 
    287          	0x00, 0x00, 0x00, 0x00, 0x00, 0xC6, 0xC6, 0xC6, 0xC6, 0xC6, 0xC6, 0xC6, 0x7C, 0x40, 0x40, 0x80, 
    288          	0x00, 0x00, 0x00, 0x00, 0x7E, 0xFA, 0xFA, 0xFA, 0xFA, 0x7A, 0x0A, 0x0A, 0x0A, 0x1A, 0x00, 0x00, 
    289          	0x00, 0x00, 0x00, 0x00, 0x00, 0x00, 0x00, 0x3C, 0x3C, 0x3C, 0x3C, 0x00, 0x00, 0x00, 0x00, 0x00, 
    290          	0x00, 0x00, 0x00, 0x00, 0x00, 0x00, 0x00, 0x00, 0x00, 0x00, 0x00, 0xE0, 0x30, 0x10, 0x30, 0xE0, 
    291          	0x00, 0x00, 0x00, 0x00, 0x10, 0x30, 0x10, 0x10, 0x10, 0x38, 0x00, 0x00, 0x00, 0x00, 0x00, 0x00, 
    292          	0x00, 0x00, 0x60, 0xF0, 0x90, 0xF0, 0x60, 0x00, 0xF0, 0x00, 0x00, 0x00, 0x00, 0x00, 0x00, 0x00, 
    293          	0x00, 0x00, 0x00, 0x00, 0x00, 0x00, 0xD8, 0x6C, 0x36, 0x1B, 0x36, 0x6C, 0xD8, 0x00, 0x00, 0x00, 
    294          	0x00, 0x00, 0x00, 0x00, 0x40, 0xC0, 0x42, 0x44, 0x4A, 0x56, 0x2A, 0x52, 0x9E, 0x02, 0x00, 0x00, 
    295          	0x00, 0x00, 0x00, 0x00, 0x40, 0xC0, 0x42, 0x44, 0x4E, 0x5A, 0x22, 0x44, 0x88, 0x0E, 0x00, 0x00, 
    296          	0x00, 0x00, 0x00, 0x00, 0x30, 0x48, 0x11, 0x0A, 0x4D, 0x3B, 0x15, 0x29, 0x4F, 0x01, 0x00, 0x00, 
    297          	0x00, 0x00, 0x00, 0x00, 0x18, 0x18, 0x00, 0x18, 0x18, 0x70, 0xC0, 0xC6, 0xC6, 0x7C, 0x00, 0x00, 
    298          	0x00, 0x60, 0x10, 0x00, 0x10, 0x38, 0x6C, 0xC6, 0xC6, 0xFE, 0xC6, 0xC6, 0xC6, 0xC6, 0x00, 0x00, 
    299          	0x00, 0x0C, 0x10, 0x00, 0x10, 0x38, 0x6C, 0xC6, 0xC6, 0xFE, 0xC6, 0xC6, 0xC6, 0xC6, 0x00, 0x00, 
    300          	0x00, 0x30, 0x48, 0x00, 0x10, 0x38, 0x6C, 0xC6, 0xC6, 0xFE, 0xC6, 0xC6, 0xC6, 0xC6, 0x00, 0x00, 
    301          	0x00, 0x72, 0x9C, 0x00, 0x10, 0x38, 0x6C, 0xC6, 0xC6, 0xFE, 0xC6, 0xC6, 0xC6, 0xC6, 0x00, 0x00, 
    302          	0x00, 0x44, 0x44, 0x00, 0x10, 0x38, 0x6C, 0xC6, 0xC6, 0xFE, 0xC6, 0xC6, 0xC6, 0xC6, 0x00, 0x00, 
    303          	0x00, 0x30, 0x48, 0x00, 0x10, 0x38, 0x6C, 0xC6, 0xC6, 0xFE, 0xC6, 0xC6, 0xC6, 0xC6, 0x00, 0x00, 
    304          	0x00, 0x00, 0x00, 0x00, 0x1E, 0x3E, 0x68, 0xCA, 0xCE, 0xFA, 0xC8, 0xC8, 0xCE, 0xCE, 0x00, 0x00, 
    305          	0x00, 0x00, 0x00, 0x3C, 0x66, 0xC2, 0xC0, 0xC0, 0xC0, 0xC2, 0x66, 0x3C, 0x18, 0x70, 0x00, 0x00, 
    306          	0x00, 0x60, 0x10, 0x00, 0x7E, 0x66, 0x62, 0x68, 0x78, 0x68, 0x60, 0x62, 0x66, 0x7E, 0x00, 0x00, 
    307          	0x00, 0x0C, 0x10, 0x00, 0xFE, 0x66, 0x62, 0x68, 0x78, 0x68, 0x60, 0x62, 0x66, 0xFE, 0x00, 0x00, 
    308          	0x00, 0x30, 0x48, 0x00, 0xFE, 0x66, 0x62, 0x68, 0x78, 0x68, 0x60, 0x62, 0x66, 0xFE, 0x00, 0x00, 
    309          	0x00, 0x44, 0x44, 0x00, 0xFE, 0x66, 0x62, 0x68, 0x78, 0x68, 0x60, 0x62, 0x66, 0xFE, 0x00, 0x00, 
    310          	0x00, 0x60, 0x10, 0x00, 0x78, 0x30, 0x30, 0x30, 0x30, 0x30, 0x30, 0x30, 0x30, 0x78, 0x00, 0x00, 
    311          	0x00, 0x18, 0x20, 0x00, 0x78, 0x30, 0x30, 0x30, 0x30, 0x30, 0x30, 0x30, 0x30, 0x78, 0x00, 0x00, 
    312          	0x00, 0x30, 0x48, 0x00, 0x78, 0x30, 0x30, 0x30, 0x30, 0x30, 0x30, 0x30, 0x30, 0x78, 0x00, 0x00, 
    313          	0x00, 0x48, 0x48, 0x00, 0x78, 0x30, 0x30, 0x30, 0x30, 0x30, 0x30, 0x30, 0x30, 0x78, 0x00, 0x00, 
    314          	0x00, 0xF8, 0x6C, 0x66, 0x66, 0x66, 0xF6, 0xF6, 0x66, 0x66, 0x66, 0x66, 0x6C, 0xF8, 0x00, 0x00, 
    315          	0x00, 0x72, 0x9C, 0x00, 0xC6, 0xE6, 0xE6, 0xF6, 0xF6, 0xFE, 0xDE, 0xCE, 0xCE, 0xC6, 0x00, 0x00, 
    316          	0x00, 0x60, 0x10, 0x00, 0x38, 0x6C, 0xC6, 0xC6, 0xC6, 0xC6, 0xC6, 0xC6, 0x6C, 0x38, 0x00, 0x00, 
    317          	0x00, 0x0C, 0x10, 0x00, 0x38, 0x6C, 0xC6, 0xC6, 0xC6, 0xC6, 0xC6, 0xC6, 0x6C, 0x38, 0x00, 0x00, 
    318          	0x00, 0x30, 0x48, 0x00, 0x38, 0x6C, 0xC6, 0xC6, 0xC6, 0xC6, 0xC6, 0xC6, 0x6C, 0x38, 0x00, 0x00, 
    319          	0x00, 0x72, 0x9C, 0x00, 0x38, 0x6C, 0xC6, 0xC6, 0xC6, 0xC6, 0xC6, 0xC6, 0x6C, 0x38, 0x00, 0x00, 
    320          	0x00, 0x44, 0x44, 0x00, 0x38, 0x6C, 0xC6, 0xC6, 0xC6, 0xC6, 0xC6, 0xC6, 0x6C, 0x38, 0x00, 0x00, 
    321          	0x00, 0x00, 0x00, 0x00, 0x00, 0x00, 0x82, 0xC6, 0x6C, 0x38, 0x38, 0x6C, 0xC6, 0x82, 0x00, 0x00, 
    322          	0x00, 0x00, 0x00, 0x00, 0x3A, 0x6C, 0xC6, 0xCE, 0xD6, 0xD6, 0xE6, 0xC6, 0x6C, 0xB8, 0x00, 0x00,                                                                            	0x00, 0x60, 0x10, 0x00, 0xC6, 0xC6, 0xC6, 0xC6, 0xC6, 0xC6, 0xC6, 0xC6, 0xC6, 0x7C, 0x00, 0x00,
    323          	0x00, 0x0C, 0x10, 0x00, 0xC6, 0xC6, 0xC6, 0xC6, 0xC6, 0xC6, 0xC6, 0xC6, 0xC6, 0x7C, 0x00, 0x00, 
    324          	0x00, 0x30, 0x48, 0x00, 0xC6, 0xC6, 0xC6, 0xC6, 0xC6, 0xC6, 0xC6, 0xC6, 0xC6, 0x7C, 0x00, 0x00, 
    325          	0x00, 0x44, 0x44, 0x00, 0xC6, 0xC6, 0xC6, 0xC6, 0xC6, 0xC6, 0xC6, 0xC6, 0xC6, 0x7C, 0x00, 0x00, 
    326          	0x00, 0x0C, 0x10, 0x00, 0xC6, 0xC6, 0x44, 0x6C, 0x38, 0x10, 0x10, 0x10, 0x10, 0x38, 0x00, 0x00, 
    327          	0x00, 0x00, 0x00, 0x00, 0xC0, 0xC0, 0xFC, 0xC6, 0xC6, 0xC6, 0xFC, 0xC0, 0xC0, 0xE0, 0x00, 0x00, 
    328          	0x00, 0x00, 0x38, 0xCC, 0xCC, 0xCC, 0xCC, 0xD8, 0xCC, 0xCC, 0xCC, 0xCC, 0xCC, 0xD8, 0x00, 0x00, 
    329          	0x00, 0x00, 0x00, 0x00, 0x60, 0x10, 0x00, 0x78, 0x0C, 0x7C, 0xCC, 0xCC, 0xCC, 0x76, 0x00, 0x00, 
    330          	0x00, 0x00, 0x00, 0x00, 0x0C, 0x10, 0x00, 0x78, 0x0C, 0x7C, 0xCC, 0xCC, 0xCC, 0x76, 0x00, 0x00, 
    331          	0x00, 0x00, 0x00, 0x00, 0x30, 0x48, 0x00, 0x78, 0x0C, 0x7C, 0xCC, 0xCC, 0xCC, 0x76, 0x00, 0x00, 
    332          	0x00, 0x00, 0x00, 0x00, 0x64, 0x98, 0x00, 0x78, 0x0C, 0x7C, 0xCC, 0xCC, 0xCC, 0x76, 0x00, 0x00, 
    333          	0x00, 0x00, 0x00, 0x00, 0x00, 0x48, 0x00, 0x78, 0x0C, 0x7C, 0xCC, 0xCC, 0xCC, 0x76, 0x00, 0x00, 
    334          	0x00, 0x00, 0x00, 0x10, 0x28, 0x10, 0x00, 0x78, 0x04, 0x7C, 0xCC, 0xCC, 0xCC, 0x76, 0x00, 0x00, 
    335          	0x00, 0x00, 0x00, 0x00, 0x00, 0x6C, 0x92, 0x12, 0x12, 0x7C, 0x90, 0x90, 0x92, 0x6C, 0x00, 0x00, 
    336          	0x00, 0x00, 0x00, 0x00, 0x00, 0x7C, 0xC6, 0xC2, 0xC0, 0xC0, 0xC6, 0x7C, 0x18, 0x70, 0x00, 0x00, 
    337          	0x00, 0x00, 0x00, 0x00, 0x60, 0x10, 0x00, 0x7C, 0xC6, 0xC6, 0xFE, 0xC0, 0xC6, 0x7C, 0x00, 0x00, 
    338          	0x00, 0x00, 0x00, 0x00, 0x0C, 0x10, 0x00, 0x7C, 0xC6, 0xC6, 0xFE, 0xC0, 0xC6, 0x7C, 0x00, 0x00, 
    339          	0x00, 0x00, 0x00, 0x00, 0x30, 0x48, 0x00, 0x7C, 0xC6, 0xC6, 0xFE, 0xC0, 0xC6, 0x7C, 0x00, 0x00, 
    340          	0x00, 0x00, 0x00, 0x00, 0x00, 0x44, 0x00, 0x7C, 0xC6, 0xC2, 0xFE, 0xC0, 0xC6, 0x7C, 0x00, 0x00, 
    341          	0x00, 0x00, 0x00, 0x00, 0xC0, 0x20, 0x00, 0x70, 0x30, 0x30, 0x30, 0x30, 0x30, 0x78, 0x00, 0x00, 
    342          	0x00, 0x00, 0x00, 0x00, 0x18, 0x20, 0x00, 0x70, 0x30, 0x30, 0x30, 0x30, 0x30, 0x78, 0x00, 0x00, 
    343          	0x00, 0x00, 0x00, 0x00, 0x30, 0x48, 0x00, 0x70, 0x30, 0x30, 0x30, 0x30, 0x30, 0x78, 0x00, 0x00, 
    344          	0x00, 0x00, 0x00, 0x00, 0x00, 0x48, 0x00, 0x70, 0x30, 0x30, 0x30, 0x30, 0x30, 0x78, 0x00, 0x00, 
    345          	0x00, 0x00, 0x00, 0x00, 0x2C, 0x10, 0x68, 0x04, 0x7C, 0xC6, 0xC6, 0xC6, 0xC6, 0x7C, 0x00, 0x00, 
    346          	0x00, 0x00, 0x00, 0x00, 0x64, 0x98, 0x00, 0xDC, 0x66, 0x66, 0x66, 0x66, 0x66, 0x66, 0x00, 0x00, 
    347          	0x00, 0x00, 0x00, 0x00, 0x60, 0x10, 0x00, 0x7C, 0xC6, 0xC6, 0xC6, 0xC6, 0xC6, 0x7C, 0x00, 0x00, 
    348          	0x00, 0x00, 0x00, 0x00, 0x0C, 0x10, 0x00, 0x7C, 0xC6, 0xC6, 0xC6, 0xC6, 0xC6, 0x7C, 0x00, 0x00, 
    349          	0x00, 0x00, 0x00, 0x00, 0x30, 0x48, 0x00, 0x7C, 0xC6, 0xC6, 0xC6, 0xC6, 0xC6, 0x7C, 0x00, 0x00, 
    350          	0x00, 0x00, 0x00, 0x00, 0x64, 0x98, 0x00, 0x7C, 0xC6, 0xC6, 0xC6, 0xC6, 0xC6, 0x7C, 0x00, 0x00, 
    351          	0x00, 0x00, 0x00, 0x00, 0x00, 0x44, 0x00, 0x7C, 0xC6, 0xC6, 0xC6, 0xC6, 0xC6, 0x7C, 0x00, 0x00, 
    352          	0x00, 0x00, 0x00, 0x00, 0x30, 0x30, 0x00, 0x00, 0xFE, 0xFE, 0x00, 0x00, 0x30, 0x30, 0x00, 0x00, 
    353          	0x00, 0x00, 0x00, 0x00, 0x00, 0x00, 0x00, 0x3A, 0xC6, 0x8A, 0x92, 0xA2, 0xC6, 0xB8, 0x00, 0x00, 
    354          	0xA8, 0x50, 0xA8, 0x50, 0xA8, 0x50, 0xA8, 0x00, 0x00, 0x00, 0x00, 0x00, 0x00, 0x00, 0x00, 0x00, 
    355          	0x00, 0x00, 0x00, 0x00, 0x0C, 0x10, 0x00, 0xCC, 0xCC, 0xCC, 0xCC, 0xCC, 0xCC, 0x76, 0x00, 0x00, 
    356          	0x00, 0x00, 0x00, 0x00, 0x30, 0x48, 0x00, 0xCC, 0xCC, 0xCC, 0xCC, 0xCC, 0xCC, 0x76, 0x00, 0x00, 
    357          	0x00, 0x00, 0x00, 0x00, 0x00, 0x48, 0x00, 0xCC, 0xCC, 0xCC, 0xCC, 0xCC, 0xCC, 0x76, 0x00, 0x00, 
    358          	0x00, 0x00, 0x00, 0x0C, 0x10, 0x00, 0xC6, 0xC6, 0x44, 0x6C, 0x38, 0x38, 0x10, 0x10, 0x20, 0xC0, 
    359          	0x00, 0x00, 0x00, 0xC0, 0xC0, 0xDC, 0xE6, 0xC6, 0xC6, 0xC6, 0xE6, 0xDC, 0xC0, 0xC0, 0xC0, 0xC0, 
    360          	0x00, 0x00, 0x44, 0x44, 0x00, 0x00, 0xC6, 0xC6, 0x44, 0x6C, 0x38, 0x38, 0x10, 0x10, 0x20, 0xC0
    361          }; 
    362          

   \                                 In section .data, align 4
    363          unsigned char Russian[576] = {
   \                     Russian:
   \   00000000   0078D8D8D8D8       DC8 0, 120, 216, 216, 216, 216, 216, 220, 218, 218, 218, 218, 222, 220
   \              D8DCDADADADA
   \              DEDC        
   \   0000000E   0000007C0C0C       DC8 0, 0, 0, 124, 12, 12, 12, 12, 12, 12, 12, 12, 12, 12, 12, 124, 0, 0
   \              0C0C0C0C0C0C
   \              0C0C0C7C0000
   \   00000020   00D8D8D8D8D8       DC8 0, 216, 216, 216, 216, 216, 216, 252, 218, 218, 218, 218, 218, 220
   \              D8FCDADADADA
   \              DADC        
   \   0000002E   000000FEFE60       DC8 0, 0, 0, 254, 254, 96, 96, 96, 96, 124, 126, 102, 102, 102, 102
   \              6060607C7E66
   \              666666      
   \   0000003D   660000007838       DC8 102, 0, 0, 0, 120, 56, 24, 8, 0, 0, 0, 0, 0, 0, 0, 0, 0, 0, 0, 0
   \              180800000000
   \              000000000000
   \              0000        
   \   00000051   FCC0C0C0C0F8       DC8 252, 192, 192, 192, 192, 248, 252, 198, 198, 198, 198, 252, 248, 0
   \              FCC6C6C6C6FC
   \              F800        
   \   0000005F   0000FEFEC0C0       DC8 0, 0, 254, 254, 192, 192, 192, 192, 192, 192, 192, 192, 192, 192
   \              C0C0C0C0C0C0
   \              C0C0        
   \   0000006D   800000001830       DC8 128, 0, 0, 0, 24, 48, 254, 254, 198, 192, 192, 192, 192, 192, 192
   \              FEFEC6C0C0C0
   \              C0C0C0      
   \   0000007C   C0800000001C       DC8 192, 128, 0, 0, 0, 28, 60, 108, 108, 108, 108, 108, 108, 108, 254
   \              3C6C6C6C6C6C
   \              6C6CFE      
   \   0000008B   C6C6C6000000       DC8 198, 198, 198, 0, 0, 0, 40, 40, 0, 0, 254, 254, 192, 192, 248, 192
   \              28280000FEFE
   \              C0C0F8C0    
   \   0000009B   C0FEFE000000       DC8 192, 254, 254, 0, 0, 0, 214, 214, 214, 214, 214, 84, 56, 84, 214
   \              D6D6D6D6D654
   \              3854D6      
   \   000000AA   D6D6D6D60000       DC8 214, 214, 214, 214, 0, 0, 0, 56, 124, 198, 198, 6, 6, 60, 6, 6, 198
   \              00387CC6C606
   \              063C0606C6  
   \   000000BB   C67C38000000       DC8 198, 124, 56, 0, 0, 0, 198, 198, 206, 206, 222, 214, 246, 230, 230
   \              C6C6CECEDED6
   \              F6E6E6      
   \   000000CA   C6C6C6C60000       DC8 198, 198, 198, 198, 0, 0, 0, 108, 16, 0, 198, 198, 206, 222, 254
   \              006C1000C6C6
   \              CEDEFE      
   \   000000D9   F6E6C6C6C600       DC8 246, 230, 198, 198, 198, 0, 0, 0, 30, 62, 102, 102, 102, 102, 102
   \              00001E3E6666
   \              666666      
   \   000000E8   666666664686       DC8 102, 102, 102, 102, 70, 134, 0, 0, 0, 254, 254, 198, 198, 198, 198
   \              000000FEFEC6
   \              C6C6C6      
   \   000000F7   C6C6C6C6C6C6       DC8 198, 198, 198, 198, 198, 198, 198, 0, 0, 0, 198, 198, 198, 198, 198
   \              C6000000C6C6
   \              C6C6C6      
   \   00000106   FE7E0606C6C6       DC8 254, 126, 6, 6, 198, 198, 124, 56, 0, 0, 0, 16, 16, 124, 254, 214
   \              7C3800000010
   \              107CFED6    
   \   00000116   D6D6D6D6FE7C       DC8 214, 214, 214, 214, 254, 124, 16, 16, 0, 0, 0, 204, 204, 204, 204
   \              1010000000CC
   \              CCCCCC      
   \   00000125   CCCCCCCCCEFE       DC8 204, 204, 204, 204, 206, 254, 254, 6, 6, 0, 0, 0, 198, 198, 198
   \              FE0606000000
   \              C6C6C6      
   \   00000134   C6C6C6FE7E06       DC8 198, 198, 198, 254, 126, 6, 6, 6, 6, 6, 0, 0, 0, 214, 214, 214, 214
   \              060606060000
   \              00D6D6D6D6  
   \   00000145   D6D6D6D6D6D6       DC8 214, 214, 214, 214, 214, 214, 214, 254, 254, 0, 0, 0, 214, 214, 214
   \              D6FEFE000000
   \              D6D6D6      
   \   00000154   D6D6D6D6D6D6       DC8 214, 214, 214, 214, 214, 214, 254, 254, 6, 6, 0, 0, 0, 224, 224, 96
   \              FEFE06060000
   \              00E0E060    
   \   00000164   6060787C6666       DC8 96, 96, 120, 124, 102, 102, 102, 102, 124, 120, 0, 0, 0, 198, 198
   \              66667C780000
   \              00C6C6      
   \   00000173   C6C6C6E6F6D6       DC8 198, 198, 198, 230, 246, 214, 214, 214, 246, 230, 198, 0, 0, 0, 192
   \              D6D6F6E6C600
   \              0000C0      
   \   00000182   C0C0C0C0F8FC       DC8 192, 192, 192, 192, 248, 252, 198, 198, 198, 198, 252, 248, 0, 0, 0
   \              C6C6C6C6FCF8
   \              000000      
   \   00000191   F8FC0C0C0C0C       DC8 248, 252, 12, 12, 12, 12, 124, 12, 12, 12, 12, 252, 248, 0, 0, 0
   \              7C0C0C0C0CFC
   \              F8000000    
   \   000001A1   9CB6B6B6B6B6       DC8 156, 182, 182, 182, 182, 182, 246, 182, 182, 182, 182, 182, 156, 0
   \              F6B6B6B6B6B6
   \              9C00        
   \   000001AF   00007EFEC6C6       DC8 0, 0, 126, 254, 198, 198, 198, 198, 254, 126, 30, 54, 102, 198, 134
   \              C6C6FE7E1E36
   \              66C686      
   \   000001BE   000000FEFE60       DC8 0, 0, 0, 254, 254, 96, 96, 96, 124, 126, 98, 98, 98, 98, 102, 70, 0
   \              60607C7E6262
   \              6262664600  
   \   000001CF   00007CFCC0C0       DC8 0, 0, 124, 252, 192, 192, 192, 192, 248, 192, 192, 192, 192, 252
   \              C0C0F8C0C0C0
   \              C0FC        
   \   000001DD   7C0000002424       DC8 124, 0, 0, 0, 36, 36, 0, 0, 60, 60, 24, 24, 24, 24, 24, 60, 60, 0
   \              00003C3C1818
   \              1818183C3C00
   \   000001EF   0000D9C3C6CC       DC8 0, 0, 217, 195, 198, 204, 216, 240, 224, 240, 216, 204, 198, 195
   \              D8F0E0F0D8CC
   \              C6C3        
   \   000001FD   C10000001010       DC8 193, 0, 0, 0, 16, 16, 198, 198, 198, 198, 198, 126, 6, 6, 6, 6, 124
   \              C6C6C6C6C67E
   \              060606067C  
   \   0000020E   380000C6C6C6       DC8 56, 0, 0, 198, 198, 198, 198, 198, 198, 198, 198, 198, 254, 254, 16
   \              C6C6C6C6C6C6
   \              FEFE10      
   \   0000021D   100000000000       DC8 16, 0, 0, 0, 0, 0, 118, 220, 0, 0, 0, 0, 0, 0, 0, 0, 0, 0, 0, 0, 0
   \              76DC00000000
   \              000000000000
   \              000000      
   \   00000232   000000000000       DC8 0, 0, 0, 0, 0, 0, 0, 0, 0, 0, 0, 0, 0, 0
   \              000000000000
   \              0000        
    364          	0x00, 0x78, 0xD8, 0xD8, 0xD8, 0xD8, 0xD8, 0xDC, 0xDA, 0xDA, 0xDA, 0xDA, 0xDE, 0xDC, 0x00, 0x00, 
    365          	0x00, 0x7C, 0x0C, 0x0C, 0x0C, 0x0C, 0x0C, 0x0C, 0x0C, 0x0C, 0x0C, 0x0C, 0x0C, 0x7C, 0x00, 0x00, 
    366          	0x00, 0xD8, 0xD8, 0xD8, 0xD8, 0xD8, 0xD8, 0xFC, 0xDA, 0xDA, 0xDA, 0xDA, 0xDA, 0xDC, 0x00, 0x00, 
    367          	0x00, 0xFE, 0xFE, 0x60, 0x60, 0x60, 0x60, 0x7C, 0x7E, 0x66, 0x66, 0x66, 0x66, 0x66, 0x00, 0x00, 
    368          	0x00, 0x78, 0x38, 0x18, 0x08, 0x00, 0x00, 0x00, 0x00, 0x00, 0x00, 0x00, 0x00, 0x00, 0x00, 0x00, 
    369          	0x00, 0xFC, 0xC0, 0xC0, 0xC0, 0xC0, 0xF8, 0xFC, 0xC6, 0xC6, 0xC6, 0xC6, 0xFC, 0xF8, 0x00, 0x00, 
    370          	0x00, 0xFE, 0xFE, 0xC0, 0xC0, 0xC0, 0xC0, 0xC0, 0xC0, 0xC0, 0xC0, 0xC0, 0xC0, 0x80, 0x00, 0x00, 
    371          	0x00, 0x18, 0x30, 0xFE, 0xFE, 0xC6, 0xC0, 0xC0, 0xC0, 0xC0, 0xC0, 0xC0, 0xC0, 0x80, 0x00, 0x00, 
    372          	0x00, 0x1C, 0x3C, 0x6C, 0x6C, 0x6C, 0x6C, 0x6C, 0x6C, 0x6C, 0xFE, 0xC6, 0xC6, 0xC6, 0x00, 0x00, 
    373          	0x00, 0x28, 0x28, 0x00, 0x00, 0xFE, 0xFE, 0xC0, 0xC0, 0xF8, 0xC0, 0xC0, 0xFE, 0xFE, 0x00, 0x00, 
    374          	0x00, 0xD6, 0xD6, 0xD6, 0xD6, 0xD6, 0x54, 0x38, 0x54, 0xD6, 0xD6, 0xD6, 0xD6, 0xD6, 0x00, 0x00, 
    375          	0x00, 0x38, 0x7C, 0xC6, 0xC6, 0x06, 0x06, 0x3C, 0x06, 0x06, 0xC6, 0xC6, 0x7C, 0x38, 0x00, 0x00, 
    376          	0x00, 0xC6, 0xC6, 0xCE, 0xCE, 0xDE, 0xD6, 0xF6, 0xE6, 0xE6, 0xC6, 0xC6, 0xC6, 0xC6, 0x00, 0x00, 
    377          	0x00, 0x6C, 0x10, 0x00, 0xC6, 0xC6, 0xCE, 0xDE, 0xFE, 0xF6, 0xE6, 0xC6, 0xC6, 0xC6, 0x00, 0x00, 
    378          	0x00, 0x1E, 0x3E, 0x66, 0x66, 0x66, 0x66, 0x66, 0x66, 0x66, 0x66, 0x66, 0x46, 0x86, 0x00, 0x00, 
    379          	0x00, 0xFE, 0xFE, 0xC6, 0xC6, 0xC6, 0xC6, 0xC6, 0xC6, 0xC6, 0xC6, 0xC6, 0xC6, 0xC6, 0x00, 0x00, 
    380          	0x00, 0xC6, 0xC6, 0xC6, 0xC6, 0xC6, 0xFE, 0x7E, 0x06, 0x06, 0xC6, 0xC6, 0x7C, 0x38, 0x00, 0x00, 
    381          	0x00, 0x10, 0x10, 0x7C, 0xFE, 0xD6, 0xD6, 0xD6, 0xD6, 0xD6, 0xFE, 0x7C, 0x10, 0x10, 0x00, 0x00, 
    382          	0x00, 0xCC, 0xCC, 0xCC, 0xCC, 0xCC, 0xCC, 0xCC, 0xCC, 0xCE, 0xFE, 0xFE, 0x06, 0x06, 0x00, 0x00, 
    383          	0x00, 0xC6, 0xC6, 0xC6, 0xC6, 0xC6, 0xC6, 0xFE, 0x7E, 0x06, 0x06, 0x06, 0x06, 0x06, 0x00, 0x00, 
    384          	0x00, 0xD6, 0xD6, 0xD6, 0xD6, 0xD6, 0xD6, 0xD6, 0xD6, 0xD6, 0xD6, 0xD6, 0xFE, 0xFE, 0x00, 0x00, 
    385          	0x00, 0xD6, 0xD6, 0xD6, 0xD6, 0xD6, 0xD6, 0xD6, 0xD6, 0xD6, 0xFE, 0xFE, 0x06, 0x06, 0x00, 0x00, 
    386          	0x00, 0xE0, 0xE0, 0x60, 0x60, 0x60, 0x78, 0x7C, 0x66, 0x66, 0x66, 0x66, 0x7C, 0x78, 0x00, 0x00, 
    387          	0x00, 0xC6, 0xC6, 0xC6, 0xC6, 0xC6, 0xE6, 0xF6, 0xD6, 0xD6, 0xD6, 0xF6, 0xE6, 0xC6, 0x00, 0x00, 
    388          	0x00, 0xC0, 0xC0, 0xC0, 0xC0, 0xC0, 0xF8, 0xFC, 0xC6, 0xC6, 0xC6, 0xC6, 0xFC, 0xF8, 0x00, 0x00, 
    389          	0x00, 0xF8, 0xFC, 0x0C, 0x0C, 0x0C, 0x0C, 0x7C, 0x0C, 0x0C, 0x0C, 0x0C, 0xFC, 0xF8, 0x00, 0x00, 
    390          	0x00, 0x9C, 0xB6, 0xB6, 0xB6, 0xB6, 0xB6, 0xF6, 0xB6, 0xB6, 0xB6, 0xB6, 0xB6, 0x9C, 0x00, 0x00, 
    391          	0x00, 0x7E, 0xFE, 0xC6, 0xC6, 0xC6, 0xC6, 0xFE, 0x7E, 0x1E, 0x36, 0x66, 0xC6, 0x86, 0x00, 0x00, 
    392          	0x00, 0xFE, 0xFE, 0x60, 0x60, 0x60, 0x7C, 0x7E, 0x62, 0x62, 0x62, 0x62, 0x66, 0x46, 0x00, 0x00, 
    393          	0x00, 0x7C, 0xFC, 0xC0, 0xC0, 0xC0, 0xC0, 0xF8, 0xC0, 0xC0, 0xC0, 0xC0, 0xFC, 0x7C, 0x00, 0x00, 
    394          	0x00, 0x24, 0x24, 0x00, 0x00, 0x3C, 0x3C, 0x18, 0x18, 0x18, 0x18, 0x18, 0x3C, 0x3C, 0x00, 0x00, 
    395          	0x00, 0xD9, 0xC3, 0xC6, 0xCC, 0xD8, 0xF0, 0xE0, 0xF0, 0xD8, 0xCC, 0xC6, 0xC3, 0xC1, 0x00, 0x00, 
    396          	0x00, 0x10, 0x10, 0xC6, 0xC6, 0xC6, 0xC6, 0xC6, 0x7E, 0x06, 0x06, 0x06, 0x06, 0x7C, 0x38, 0x00, 
    397          	0x00, 0xC6, 0xC6, 0xC6, 0xC6, 0xC6, 0xC6, 0xC6, 0xC6, 0xC6, 0xFE, 0xFE, 0x10, 0x10, 0x00, 0x00, 
    398          	0x00, 0x00, 0x00, 0x76, 0xDC, 0x00, 0x00, 0x00, 0x00, 0x00, 0x00, 0x00, 0x00, 0x00, 0x00, 0x00, 
    399          	0x00, 0x00, 0x00, 0x00, 0x00, 0x00, 0x00, 0x00, 0x00, 0x00, 0x00, 0x00, 0x00, 0x00, 0x00, 0x00
    400          };
    401                  
    402          //*******************used by LED_Effect.c***************************************************************

   \                                 In section .data, align 4
    403          unsigned char animate_img[4][16][2] = {
   \                     animate_img:
   \   00000000   000003E00FF8       DC8 0, 0, 3, 224, 15, 248, 31, 252, 63, 248, 63, 224, 127, 192, 127
   \              1FFC3FF83FE0
   \              7FC07F      
   \   0000000F   807F007F807F       DC8 128, 127, 0, 127, 128, 127, 192, 63, 224, 63, 248, 31, 252, 15, 248
   \              C03FE03FF81F
   \              FC0FF8      
   \   0000001E   03E0000003E0       DC8 3, 224, 0, 0, 3, 224, 15, 248, 31, 252, 63, 254, 63, 254, 127, 248
   \              0FF81FFC3FFE
   \              3FFE7FF8    
   \   0000002E   7FC07F007FC0       DC8 127, 192, 127, 0, 127, 192, 127, 248, 63, 254, 63, 254, 31, 252, 15
   \              7FF83FFE3FFE
   \              1FFC0F      
   \   0000003D   F803E0000003       DC8 248, 3, 224, 0, 0, 3, 224, 15, 248, 31, 252, 63, 254, 63, 254, 127
   \              E00FF81FFC3F
   \              FE3FFE7F    
   \   0000004D   FF7FFF7F007F       DC8 255, 127, 255, 127, 0, 127, 255, 127, 255, 63, 254, 63, 254, 31
   \              FF7FFF3FFE3F
   \              FE1F        
   \   0000005B   FC0FF803E000       DC8 252, 15, 248, 3, 224, 0, 0, 3, 224, 15, 248, 31, 252, 63, 254, 63
   \              0003E00FF81F
   \              FC3FFE3F    
   \   0000006B   FE7FFF7FFF7F       DC8 254, 127, 255, 127, 255, 127, 255, 127, 255, 127, 255, 63, 254, 63
   \              FF7FFF7FFF3F
   \              FE3F        
   \   00000079   FE1FFC0FF803       DC8 254, 31, 252, 15, 248, 3, 224
   \              E0          
    404          	0x00, 0x00, 0x03, 0xE0, 0x0F, 0xF8, 0x1F, 0xFC, 0x3F, 0xF8, 0x3F, 0xE0, 0x7F, 0xC0, 0x7F, 0x80, 
    405          	0x7F, 0x00, 0x7F, 0x80, 0x7F, 0xC0, 0x3F, 0xE0, 0x3F, 0xF8, 0x1F, 0xFC, 0x0F, 0xF8, 0x03, 0xE0, 
    406          	0x00, 0x00, 0x03, 0xE0, 0x0F, 0xF8, 0x1F, 0xFC, 0x3F, 0xFE, 0x3F, 0xFE, 0x7F, 0xF8, 0x7F, 0xC0, 
    407          	0x7F, 0x00, 0x7F, 0xC0, 0x7F, 0xF8, 0x3F, 0xFE, 0x3F, 0xFE, 0x1F, 0xFC, 0x0F, 0xF8, 0x03, 0xE0, 
    408          	0x00, 0x00, 0x03, 0xE0, 0x0F, 0xF8, 0x1F, 0xFC, 0x3F, 0xFE, 0x3F, 0xFE, 0x7F, 0xFF, 0x7F, 0xFF, 
    409          	0x7F, 0x00, 0x7F, 0xFF, 0x7F, 0xFF, 0x3F, 0xFE, 0x3F, 0xFE, 0x1F, 0xFC, 0x0F, 0xF8, 0x03, 0xE0, 
    410          	0x00, 0x00, 0x03, 0xE0, 0x0F, 0xF8, 0x1F, 0xFC, 0x3F, 0xFE, 0x3F, 0xFE, 0x7F, 0xFF, 0x7F, 0xFF, 
    411          	0x7F, 0xFF, 0x7F, 0xFF, 0x7F, 0xFF, 0x3F, 0xFE, 0x3F, 0xFE, 0x1F, 0xFC, 0x0F, 0xF8, 0x03, 0xE0
    412          };
    413          

   \                                 In section .data, align 4
    414          unsigned char rndnum[]={
   \                     rndnum:
   \   00000000   5227920541C0       DC8 82, 39, 146, 5, 65, 192, 215, 63, 175, 89, 156, 133, 95, 2, 190, 13
   \              D73FAF599C85
   \              5F02BE0D    
   \   00000010   34E0BD2EB635       DC8 52, 224, 189, 46, 182, 53, 194, 188, 16, 0, 100, 197, 101, 233, 36
   \              C2BC100064C5
   \              65E924      
   \   0000001F   54940EE4CB40       DC8 84, 148, 14, 228, 203, 64, 11, 152, 241, 227, 73, 219, 136, 19, 28
   \              0B98F1E349DB
   \              88131C      
   \   0000002E   2D63B842B41E       DC8 45, 99, 184, 66, 180, 30, 210, 83, 162, 56, 154, 18, 129, 37, 25
   \              D253A2389A12
   \              812519      
   \   0000003D   8B785B2293AE       DC8 139, 120, 91, 34, 147, 174, 90, 85, 102, 221, 98, 68, 191, 159, 245
   \              5A5566DD6244
   \              BF9FF5      
   \   0000004C   ECF9805C3284       DC8 236, 249, 128, 92, 50, 132, 72, 60, 78, 59, 61, 204, 124, 131, 151
   \              483C4E3B3DCC
   \              7C8397      
   \   0000005B   2B8A29E29B2F       DC8 43, 138, 41, 226, 155, 47, 143, 161, 22, 17, 240, 79, 235, 186, 142
   \              8FA11611F04F
   \              EBBA8E      
   \   0000006A   96FC9901A026       DC8 150, 252, 153, 1, 160, 38, 145, 205, 9, 242, 125, 58, 126, 169, 183
   \              91CD09F27D3A
   \              7EA9B7      
   \   00000079   A63017C76028       DC8 166, 48, 23, 199, 96, 40, 77, 12, 185, 29, 94, 232, 168, 111, 222
   \              4D0CB91D5EE8
   \              A86FDE      
   \   00000088   DF73BBA5671A       DC8 223, 115, 187, 165, 103, 26, 8, 231, 237, 251, 195, 209, 110, 80
   \              08E7EDFBC3D1
   \              6E50        
   \   00000096   CF8C75D4202C       DC8 207, 140, 117, 212, 32, 44, 137, 6, 144, 27, 109, 158, 239, 243, 24
   \              8906901B6D9E
   \              EFF318      
   \   000000A5   FDC4EEE1F670       DC8 253, 196, 238, 225, 246, 112, 171, 130, 114, 10, 123, 244, 76, 220
   \              AB82720A7BF4
   \              4CDC        
   \   000000B3   5776516BB1D6       DC8 87, 118, 81, 107, 177, 214, 163, 113, 157, 173, 208, 88, 54, 33, 15
   \              A3719DADD058
   \              36210F      
   \   000000C2   F8E656A4FE03       DC8 248, 230, 86, 164, 254, 3, 75, 104, 57, 67, 176, 179, 55, 250, 7
   \              4B683943B0B3
   \              37FA07      
   \   000000D1   EA46474A0445       DC8 234, 70, 71, 74, 4, 69, 201, 51, 213, 121, 181, 206, 35, 105, 247
   \              C933D579B5CE
   \              2369F7      
   \   000000E0   C16A147F3EE5       DC8 193, 106, 20, 127, 62, 229, 198, 93, 216, 178, 21, 211, 217, 202
   \              C65DD8B215D3
   \              D9CA        
   \   000000EE   ACC86C61868D       DC8 172, 200, 108, 97, 134, 141, 255, 135, 49, 167, 31, 122, 218, 119
   \              FF8731A71F7A
   \              DA77        
   \   000000FC   2AAA7495           DC8 42, 170, 116, 149
    415            0x52,0x27,0x92,0x05,0x41,0xC0,0xD7,0x3F,0xAF,0x59,0x9C,0x85,0x5F,0x02,0xBE,0x0D,
    416            0x34,0xE0,0xBD,0x2E,0xB6,0x35,0xC2,0xBC,0x10,0x00,0x64,0xC5,0x65,0xE9,0x24,0x54,
    417            0x94,0x0E,0xE4,0xCB,0x40,0x0B,0x98,0xF1,0xE3,0x49,0xDB,0x88,0x13,0x1C,0x2D,0x63,
    418            0xB8,0x42,0xB4,0x1E,0xD2,0x53,0xA2,0x38,0x9A,0x12,0x81,0x25,0x19,0x8B,0x78,0x5B,
    419            0x22,0x93,0xAE,0x5A,0x55,0x66,0xDD,0x62,0x44,0xBF,0x9F,0xF5,0xEC,0xF9,0x80,0x5C,
    420            0x32,0x84,0x48,0x3C,0x4E,0x3B,0x3D,0xCC,0x7C,0x83,0x97,0x2B,0x8A,0x29,0xE2,0x9B,
    421            0x2F,0x8F,0xA1,0x16,0x11,0xF0,0x4F,0xEB,0xBA,0x8E,0x96,0xFC,0x99,0x01,0xA0,0x26,
    422            0x91,0xCD,0x09,0xF2,0x7D,0x3A,0x7E,0xA9,0xB7,0xA6,0x30,0x17,0xC7,0x60,0x28,0x4D,
    423            0x0C,0xB9,0x1D,0x5E,0xE8,0xA8,0x6F,0xDE,0xDF,0x73,0xBB,0xA5,0x67,0x1A,0x08,0xE7,
    424            0xED,0xFB,0xC3,0xD1,0x6E,0x50,0xCF,0x8C,0x75,0xD4,0x20,0x2C,0x89,0x06,0x90,0x1B,
    425            0x6D,0x9E,0xEF,0xF3,0x18,0xFD,0xC4,0xEE,0xE1,0xF6,0x70,0xAB,0x82,0x72,0x0A,0x7B,
    426            0xF4,0x4C,0xDC,0x57,0x76,0x51,0x6B,0xB1,0xD6,0xA3,0x71,0x9D,0xAD,0xD0,0x58,0x36,
    427            0x21,0x0F,0xF8,0xE6,0x56,0xA4,0xFE,0x03,0x4B,0x68,0x39,0x43,0xB0,0xB3,0x37,0xFA,
    428            0x07,0xEA,0x46,0x47,0x4A,0x04,0x45,0xC9,0x33,0xD5,0x79,0xB5,0xCE,0x23,0x69,0xF7,
    429            0xC1,0x6A,0x14,0x7F,0x3E,0xE5,0xC6,0x5D,0xD8,0xB2,0x15,0xD3,0xD9,0xCA,0xAC,0xC8,
    430            0x6C,0x61,0x86,0x8D,0xFF,0x87,0x31,0xA7,0x1F,0x7A,0xDA,0x77,0x2A,0xAA,0x74,0x95
    431          };
    432          //#endif
    433          
    434          
    435          
    436          #ifdef _HardWare
    437          #else // BC6
    438          
    439          //---------------------------------------------------------------------------
    440          __fastcall TForm1::TForm1(TComponent* Owner)
    441                  : TForm(Owner)
    442          {
    443            ControlCanvas = new TControlCanvas;
    444            ControlCanvas->Control = Panel2;
    445            ControlCanvas->Brush->Color=clBlack;
    446          }
    447          //---------------------------------------------------------------------------
    448          #endif
    449          
    450          
    451          /*
    452          void LED_ascii2buffer(unsigned char *ASC_Buf,int n)
    453          {
    454           unsigned char x,y,data,*FontPt;
    455           unsigned int k ;
    456           // data = dsiplay ASCII data , from 20 - 7E
    457           // addr : bit 4-5 = page 0 or 6 ,the number is double , bit 0-3 = DIG number
    458           //P9.5 = 1 ;
    459           for( x = 0 ; x < LED_byte_Length ; x++ ){
    460             data = ASC_Buf[x] ;
    461             if(data < 0x20 || x >= n){
    462                 data = ' ' ; // space data
    463             }
    464             data -= 0x20;
    465             k = data*0x10 ;
    466             FontPt=LED79PAT;
    467             for ( y = 0 ; y < 16 ; y++ ){ 
    468               Backup.COM[y][x] = FontPt[y+k];
    469             }
    470           }
    471          }
    472          */
    473          
    474          /*
    475          void scroll_left_str(char *str)
    476          {
    477            char *RevPT;
    478            int d_length;
    479            int i;
    480            RevPT = str;
    481            d_length = strlen(str);
    482            for(i=0;;i++){
    483              if ( d_length > LED_byte_Length ){
    484          //      LED_ascii2buffer(RevPT,LED_byte_Length); //´¨¬‡
    485                LED_ascii2buffer((unsigned char *)RevPT,LED_byte_Length);
    486                scroll_leftBack(LED_byte_Length*8);
    487                d_length -= LED_byte_Length;
    488                RevPT += LED_byte_Length;
    489              }else{
    490                last_str_width = d_length;
    491          //      LED_ascii2buffer(RevPT,d_length); //´¨¬‡
    492                LED_ascii2buffer((unsigned char *)RevPT,d_length);
    493                if ( i == 0 )
    494                  scroll_leftBack(LED_byte_Length*8);
    495                else
    496                  scroll_leftBack(d_length*8);
    497                break;
    498              }
    499            }
    500          }
    501          */

   \                                 In section .text, align 4, keep-with-next
    502          void scroll_leftBack(int bits) //Backup_buf ¶V•™≤æ§J
    503          {
   \                     scroll_leftBack:
   \   00000000   38B5               PUSH     {R3-R5,LR}
   \   00000002   0400               MOVS     R4,R0
    504            int i;
    505            for(i=0;i<bits;i++){
   \   00000004   0020               MOVS     R0,#+0
   \   00000006   0500               MOVS     R5,R0
   \                     ??scroll_leftBack_0:
   \   00000008   A542               CMP      R5,R4
   \   0000000A   1DDA               BGE.N    ??scroll_leftBack_1
    506              if (RecProcessing != 0 || FlashWriFlg != 0 ) return;
   \   0000000C   ....               LDR.N    R0,??DataTable20  ;; RecProcessing
   \   0000000E   0078               LDRB     R0,[R0, #+0]
   \   00000010   ....               LDR.N    R1,??DataTable21  ;; FlashWriFlg
   \   00000012   0978               LDRB     R1,[R1, #+0]
   \   00000014   0843               ORRS     R0,R1,R0
   \   00000016   C0B2               UXTB     R0,R0            ;; ZeroExt  R0,R0,#+24,#+24
   \   00000018   0028               CMP      R0,#+0
   \   0000001A   15D1               BNE.N    ??scroll_leftBack_1
    507              memset(cfA,'\0',16);
   \   0000001C   1022               MOVS     R2,#+16
   \   0000001E   0021               MOVS     R1,#+0
   \   00000020   ....               LDR.N    R0,??DataTable31  ;; cfA
   \   00000022   ........           BL       memset
    508              shift_left(0,Backup.COM);
   \   00000026   ....               LDR.N    R1,??DataTable32  ;; Backup
   \   00000028   0020               MOVS     R0,#+0
   \   0000002A   ........           BL       shift_left
    509              shift_left(0,LED_buffer.COM);
   \   0000002E   ....               LDR.N    R1,??DataTable33  ;; LED_buffer
   \   00000030   0020               MOVS     R0,#+0
   \   00000032   ........           BL       shift_left
    510              LED_change = 1 ;
   \   00000036   0548               LDR.N    R0,??scroll_leftBack_2  ;; LED_change
   \   00000038   0121               MOVS     R1,#+1
   \   0000003A   0170               STRB     R1,[R0, #+0]
    511              while( LED_change != 0 );
   \                     ??scroll_leftBack_3:
   \   0000003C   0348               LDR.N    R0,??scroll_leftBack_2  ;; LED_change
   \   0000003E   0078               LDRB     R0,[R0, #+0]
   \   00000040   0028               CMP      R0,#+0
   \   00000042   FBD1               BNE.N    ??scroll_leftBack_3
    512            }
   \   00000044   6D1C               ADDS     R5,R5,#+1
   \   00000046   DFE7               B.N      ??scroll_leftBack_0
   \                     ??scroll_leftBack_1:
   \   00000048   31BD               POP      {R0,R4,R5,PC}    ;; return
   \   0000004A   00BF               Nop      
   \                     ??scroll_leftBack_2:
   \   0000004C   ........           DC32     LED_change
    513          }
    514          

   \                                 In section .text, align 4, keep-with-next
    515          void shift_left(int pos,unsigned char buf[16][LED_byte_Length])
    516          {
   \                     shift_left:
   \   00000000   F0B5               PUSH     {R4-R7,LR}
   \   00000002   91B0               SUB      SP,SP,#+68
   \   00000004   0500               MOVS     R5,R0
   \   00000006   0C00               MOVS     R4,R1
    517            int i,j;
    518            int tmpcf[16];
    519            for(i=0;i<16;i++){
   \   00000008   0020               MOVS     R0,#+0
   \   0000000A   0600               MOVS     R6,R0
   \                     ??shift_left_0:
   \   0000000C   102E               CMP      R6,#+16
   \   0000000E   32DA               BGE.N    ??shift_left_1
    520              if (RecProcessing != 0 || FlashWriFlg != 0 ) return;
   \   00000010   ....               LDR.N    R0,??DataTable20  ;; RecProcessing
   \   00000012   0078               LDRB     R0,[R0, #+0]
   \   00000014   ....               LDR.N    R1,??DataTable21  ;; FlashWriFlg
   \   00000016   0978               LDRB     R1,[R1, #+0]
   \   00000018   0843               ORRS     R0,R1,R0
   \   0000001A   C0B2               UXTB     R0,R0            ;; ZeroExt  R0,R0,#+24,#+24
   \   0000001C   0028               CMP      R0,#+0
   \   0000001E   2AD1               BNE.N    ??shift_left_1
    521              tmpcf[i] = ( (buf[i][0] & 0x80) != 0 );
   \   00000020   0A20               MOVS     R0,#+10
   \   00000022   06FB0040           MLA      R0,R6,R0,R4
   \   00000026   0078               LDRB     R0,[R0, #+0]
   \   00000028   10F08001           ANDS     R1,R0,#0x80
   \   0000002C   481E               SUBS     R0,R1,#+1
   \   0000002E   8041               SBCS     R0,R0,R0
   \   00000030   C043               MVNS     R0,R0
   \   00000032   C00F               LSRS     R0,R0,#+31
   \   00000034   00A9               ADD      R1,SP,#+0
   \   00000036   C0B2               UXTB     R0,R0            ;; ZeroExt  R0,R0,#+24,#+24
   \   00000038   41F82600           STR      R0,[R1, R6, LSL #+2]
    522              cf=cfA[i];
   \   0000003C   ....               LDR.N    R0,??DataTable31  ;; cfA
   \   0000003E   305C               LDRB     R0,[R6, R0]
   \   00000040   ....               LDR.N    R1,??DataTable38  ;; cf
   \   00000042   0870               STRB     R0,[R1, #+0]
    523              rcl(&buf[i][LED_byte_Length-1]);
   \   00000044   0A20               MOVS     R0,#+10
   \   00000046   06FB0040           MLA      R0,R6,R0,R4
   \   0000004A   0930               ADDS     R0,R0,#+9
   \   0000004C   ........           BL       rcl
    524              cfA[i]=tmpcf[i];
   \   00000050   00A8               ADD      R0,SP,#+0
   \   00000052   50F82600           LDR      R0,[R0, R6, LSL #+2]
   \   00000056   ....               LDR.N    R1,??DataTable31  ;; cfA
   \   00000058   7054               STRB     R0,[R6, R1]
    525              for(j=LED_byte_Length-2;j>=pos;j--)
   \   0000005A   0820               MOVS     R0,#+8
   \   0000005C   0700               MOVS     R7,R0
   \                     ??shift_left_2:
   \   0000005E   AF42               CMP      R7,R5
   \   00000060   07DB               BLT.N    ??shift_left_3
    526                rcl(&buf[i][j]);
   \   00000062   0A20               MOVS     R0,#+10
   \   00000064   06FB0040           MLA      R0,R6,R0,R4
   \   00000068   3818               ADDS     R0,R7,R0
   \   0000006A   ........           BL       rcl
   \   0000006E   7F1E               SUBS     R7,R7,#+1
   \   00000070   F5E7               B.N      ??shift_left_2
    527            }
   \                     ??shift_left_3:
   \   00000072   761C               ADDS     R6,R6,#+1
   \   00000074   CAE7               B.N      ??shift_left_0
   \                     ??shift_left_1:
   \   00000076   11B0               ADD      SP,SP,#+68
   \   00000078   F0BD               POP      {R4-R7,PC}       ;; return
    528          }
    529          

   \                                 In section .text, align 4, keep-with-next
    530          void shift_leftG(int pos,unsigned char buf[16][LED_byte_Length])
    531          {
   \                     shift_leftG:
   \   00000000   F0B5               PUSH     {R4-R7,LR}
   \   00000002   91B0               SUB      SP,SP,#+68
   \   00000004   0500               MOVS     R5,R0
   \   00000006   0C00               MOVS     R4,R1
    532            int i,j;
    533            int tmpcf[16];
    534            for(i=0;i<16;i++){
   \   00000008   0020               MOVS     R0,#+0
   \   0000000A   0600               MOVS     R6,R0
   \                     ??shift_leftG_0:
   \   0000000C   102E               CMP      R6,#+16
   \   0000000E   32DA               BGE.N    ??shift_leftG_1
    535              if (RecProcessing != 0 || FlashWriFlg != 0 ) return;
   \   00000010   ....               LDR.N    R0,??DataTable20  ;; RecProcessing
   \   00000012   0078               LDRB     R0,[R0, #+0]
   \   00000014   ....               LDR.N    R1,??DataTable21  ;; FlashWriFlg
   \   00000016   0978               LDRB     R1,[R1, #+0]
   \   00000018   0843               ORRS     R0,R1,R0
   \   0000001A   C0B2               UXTB     R0,R0            ;; ZeroExt  R0,R0,#+24,#+24
   \   0000001C   0028               CMP      R0,#+0
   \   0000001E   2AD1               BNE.N    ??shift_leftG_1
    536              tmpcf[i] = ( (buf[i][0] & 0x80) != 0 );
   \   00000020   0A20               MOVS     R0,#+10
   \   00000022   06FB0040           MLA      R0,R6,R0,R4
   \   00000026   0078               LDRB     R0,[R0, #+0]
   \   00000028   10F08001           ANDS     R1,R0,#0x80
   \   0000002C   481E               SUBS     R0,R1,#+1
   \   0000002E   8041               SBCS     R0,R0,R0
   \   00000030   C043               MVNS     R0,R0
   \   00000032   C00F               LSRS     R0,R0,#+31
   \   00000034   00A9               ADD      R1,SP,#+0
   \   00000036   C0B2               UXTB     R0,R0            ;; ZeroExt  R0,R0,#+24,#+24
   \   00000038   41F82600           STR      R0,[R1, R6, LSL #+2]
    537              cfG=cfAG[i];
   \   0000003C   ....               LDR.N    R0,??DataTable34  ;; cfAG
   \   0000003E   305C               LDRB     R0,[R6, R0]
   \   00000040   ....               LDR.N    R1,??DataTable40  ;; cfG
   \   00000042   0870               STRB     R0,[R1, #+0]
    538              rclG(&buf[i][LED_byte_Length-1]);
   \   00000044   0A20               MOVS     R0,#+10
   \   00000046   06FB0040           MLA      R0,R6,R0,R4
   \   0000004A   0930               ADDS     R0,R0,#+9
   \   0000004C   ........           BL       rclG
    539              cfAG[i]=tmpcf[i];
   \   00000050   00A8               ADD      R0,SP,#+0
   \   00000052   50F82600           LDR      R0,[R0, R6, LSL #+2]
   \   00000056   ....               LDR.N    R1,??DataTable34  ;; cfAG
   \   00000058   7054               STRB     R0,[R6, R1]
    540              for(j=LED_byte_Length-2;j>=pos;j--)
   \   0000005A   0820               MOVS     R0,#+8
   \   0000005C   0700               MOVS     R7,R0
   \                     ??shift_leftG_2:
   \   0000005E   AF42               CMP      R7,R5
   \   00000060   07DB               BLT.N    ??shift_leftG_3
    541                rclG(&buf[i][j]);
   \   00000062   0A20               MOVS     R0,#+10
   \   00000064   06FB0040           MLA      R0,R6,R0,R4
   \   00000068   3818               ADDS     R0,R7,R0
   \   0000006A   ........           BL       rclG
   \   0000006E   7F1E               SUBS     R7,R7,#+1
   \   00000070   F5E7               B.N      ??shift_leftG_2
    542            }
   \                     ??shift_leftG_3:
   \   00000072   761C               ADDS     R6,R6,#+1
   \   00000074   CAE7               B.N      ??shift_leftG_0
   \                     ??shift_leftG_1:
   \   00000076   11B0               ADD      SP,SP,#+68
   \   00000078   F0BD               POP      {R4-R7,PC}       ;; return
    543          }
    544          
    545          //************************* BCBº“¿¿ assembly ***********************************

   \                                 In section .text, align 4, keep-with-next
    546          void shift_line_left(int line,unsigned char buf[16][LED_byte_Length])
    547          {
   \                     shift_line_left:
   \   00000000   2DE9F041           PUSH     {R4-R8,LR}
   \   00000004   90B0               SUB      SP,SP,#+64
   \   00000006   0500               MOVS     R5,R0
   \   00000008   0C00               MOVS     R4,R1
    548            int i,j,pos;
    549            int tmpcf[16];
    550            pos = line * 8;
   \   0000000A   E800               LSLS     R0,R5,#+3
   \   0000000C   8046               MOV      R8,R0
    551            for(i=pos;i<(pos+8);i++){
   \   0000000E   4646               MOV      R6,R8
   \                     ??shift_line_left_0:
   \   00000010   18F10800           ADDS     R0,R8,#+8
   \   00000014   8642               CMP      R6,R0
   \   00000016   32DA               BGE.N    ??shift_line_left_1
    552              if (RecProcessing != 0 || FlashWriFlg != 0 ) return;
   \   00000018   ....               LDR.N    R0,??DataTable20  ;; RecProcessing
   \   0000001A   0078               LDRB     R0,[R0, #+0]
   \   0000001C   ....               LDR.N    R1,??DataTable21  ;; FlashWriFlg
   \   0000001E   0978               LDRB     R1,[R1, #+0]
   \   00000020   0843               ORRS     R0,R1,R0
   \   00000022   C0B2               UXTB     R0,R0            ;; ZeroExt  R0,R0,#+24,#+24
   \   00000024   0028               CMP      R0,#+0
   \   00000026   2AD1               BNE.N    ??shift_line_left_1
    553              tmpcf[i] = ( (buf[i][0] & 0x80) != 0 );
   \   00000028   0A20               MOVS     R0,#+10
   \   0000002A   06FB0040           MLA      R0,R6,R0,R4
   \   0000002E   0078               LDRB     R0,[R0, #+0]
   \   00000030   10F08001           ANDS     R1,R0,#0x80
   \   00000034   481E               SUBS     R0,R1,#+1
   \   00000036   8041               SBCS     R0,R0,R0
   \   00000038   C043               MVNS     R0,R0
   \   0000003A   C00F               LSRS     R0,R0,#+31
   \   0000003C   00A9               ADD      R1,SP,#+0
   \   0000003E   C0B2               UXTB     R0,R0            ;; ZeroExt  R0,R0,#+24,#+24
   \   00000040   41F82600           STR      R0,[R1, R6, LSL #+2]
    554              cf=cfA[i];
   \   00000044   ....               LDR.N    R0,??DataTable31  ;; cfA
   \   00000046   305C               LDRB     R0,[R6, R0]
   \   00000048   ....               LDR.N    R1,??DataTable38  ;; cf
   \   0000004A   0870               STRB     R0,[R1, #+0]
    555              rcl(&buf[i][LED_byte_Length-1]);
   \   0000004C   0A20               MOVS     R0,#+10
   \   0000004E   06FB0040           MLA      R0,R6,R0,R4
   \   00000052   0930               ADDS     R0,R0,#+9
   \   00000054   ........           BL       rcl
    556              cfA[i]=tmpcf[i];
   \   00000058   00A8               ADD      R0,SP,#+0
   \   0000005A   50F82600           LDR      R0,[R0, R6, LSL #+2]
   \   0000005E   ....               LDR.N    R1,??DataTable31  ;; cfA
   \   00000060   7054               STRB     R0,[R6, R1]
    557              for(j=LED_byte_Length-2;j>=0;j--)
   \   00000062   0820               MOVS     R0,#+8
   \   00000064   0700               MOVS     R7,R0
   \                     ??shift_line_left_2:
   \   00000066   002F               CMP      R7,#+0
   \   00000068   07D4               BMI.N    ??shift_line_left_3
    558                rcl(&buf[i][j]);
   \   0000006A   0A20               MOVS     R0,#+10
   \   0000006C   06FB0040           MLA      R0,R6,R0,R4
   \   00000070   3818               ADDS     R0,R7,R0
   \   00000072   ........           BL       rcl
   \   00000076   7F1E               SUBS     R7,R7,#+1
   \   00000078   F5E7               B.N      ??shift_line_left_2
    559            }
   \                     ??shift_line_left_3:
   \   0000007A   761C               ADDS     R6,R6,#+1
   \   0000007C   C8E7               B.N      ??shift_line_left_0
   \                     ??shift_line_left_1:
   \   0000007E   10B0               ADD      SP,SP,#+64
   \   00000080   BDE8F081           POP      {R4-R8,PC}       ;; return
    560          }
    561          

   \                                 In section .text, align 4, keep-with-next
    562          void shift_line_leftG(int line,unsigned char buf[16][LED_byte_Length])
    563          {
   \                     shift_line_leftG:
   \   00000000   2DE9F041           PUSH     {R4-R8,LR}
   \   00000004   90B0               SUB      SP,SP,#+64
   \   00000006   0500               MOVS     R5,R0
   \   00000008   0C00               MOVS     R4,R1
    564            int i,j,pos;
    565            int tmpcf[16];
    566            pos = line * 8;
   \   0000000A   E800               LSLS     R0,R5,#+3
   \   0000000C   8046               MOV      R8,R0
    567            for(i=pos;i<(pos+8);i++){
   \   0000000E   4646               MOV      R6,R8
   \                     ??shift_line_leftG_0:
   \   00000010   18F10800           ADDS     R0,R8,#+8
   \   00000014   8642               CMP      R6,R0
   \   00000016   32DA               BGE.N    ??shift_line_leftG_1
    568              if (RecProcessing != 0 || FlashWriFlg != 0 ) return;
   \   00000018   ....               LDR.N    R0,??DataTable20  ;; RecProcessing
   \   0000001A   0078               LDRB     R0,[R0, #+0]
   \   0000001C   ....               LDR.N    R1,??DataTable21  ;; FlashWriFlg
   \   0000001E   0978               LDRB     R1,[R1, #+0]
   \   00000020   0843               ORRS     R0,R1,R0
   \   00000022   C0B2               UXTB     R0,R0            ;; ZeroExt  R0,R0,#+24,#+24
   \   00000024   0028               CMP      R0,#+0
   \   00000026   2AD1               BNE.N    ??shift_line_leftG_1
    569              tmpcf[i] = ( (buf[i][0] & 0x80) != 0 );
   \   00000028   0A20               MOVS     R0,#+10
   \   0000002A   06FB0040           MLA      R0,R6,R0,R4
   \   0000002E   0078               LDRB     R0,[R0, #+0]
   \   00000030   10F08001           ANDS     R1,R0,#0x80
   \   00000034   481E               SUBS     R0,R1,#+1
   \   00000036   8041               SBCS     R0,R0,R0
   \   00000038   C043               MVNS     R0,R0
   \   0000003A   C00F               LSRS     R0,R0,#+31
   \   0000003C   00A9               ADD      R1,SP,#+0
   \   0000003E   C0B2               UXTB     R0,R0            ;; ZeroExt  R0,R0,#+24,#+24
   \   00000040   41F82600           STR      R0,[R1, R6, LSL #+2]
    570              cfG=cfAG[i];
   \   00000044   ....               LDR.N    R0,??DataTable34  ;; cfAG
   \   00000046   305C               LDRB     R0,[R6, R0]
   \   00000048   ....               LDR.N    R1,??DataTable40  ;; cfG
   \   0000004A   0870               STRB     R0,[R1, #+0]
    571              rclG(&buf[i][LED_byte_Length-1]);
   \   0000004C   0A20               MOVS     R0,#+10
   \   0000004E   06FB0040           MLA      R0,R6,R0,R4
   \   00000052   0930               ADDS     R0,R0,#+9
   \   00000054   ........           BL       rclG
    572              cfAG[i]=tmpcf[i];
   \   00000058   00A8               ADD      R0,SP,#+0
   \   0000005A   50F82600           LDR      R0,[R0, R6, LSL #+2]
   \   0000005E   ....               LDR.N    R1,??DataTable34  ;; cfAG
   \   00000060   7054               STRB     R0,[R6, R1]
    573              for(j=LED_byte_Length-2;j>=0;j--)
   \   00000062   0820               MOVS     R0,#+8
   \   00000064   0700               MOVS     R7,R0
   \                     ??shift_line_leftG_2:
   \   00000066   002F               CMP      R7,#+0
   \   00000068   07D4               BMI.N    ??shift_line_leftG_3
    574                rclG(&buf[i][j]);
   \   0000006A   0A20               MOVS     R0,#+10
   \   0000006C   06FB0040           MLA      R0,R6,R0,R4
   \   00000070   3818               ADDS     R0,R7,R0
   \   00000072   ........           BL       rclG
   \   00000076   7F1E               SUBS     R7,R7,#+1
   \   00000078   F5E7               B.N      ??shift_line_leftG_2
    575            }
   \                     ??shift_line_leftG_3:
   \   0000007A   761C               ADDS     R6,R6,#+1
   \   0000007C   C8E7               B.N      ??shift_line_leftG_0
   \                     ??shift_line_leftG_1:
   \   0000007E   10B0               ADD      SP,SP,#+64
   \   00000080   BDE8F081           POP      {R4-R8,PC}       ;; return
    576          }
    577          
    578          //******************************************************************************

   \                                 In section .text, align 4, keep-with-next
    579          void Shift_Line1_left(void)
    580          {
   \                     Shift_Line1_left:
   \   00000000   80B5               PUSH     {R7,LR}
    581          //  int i;
    582            memset(cfA,'\0',16);
   \   00000002   1022               MOVS     R2,#+16
   \   00000004   0021               MOVS     R1,#+0
   \   00000006   ....               LDR.N    R0,??DataTable31  ;; cfA
   \   00000008   ........           BL       memset
    583            shift_line_left(0,Backup.COM);
   \   0000000C   ....               LDR.N    R1,??DataTable32  ;; Backup
   \   0000000E   0020               MOVS     R0,#+0
   \   00000010   ........           BL       shift_line_left
    584            shift_line_left(0,LED_buffer.COM);
   \   00000014   ....               LDR.N    R1,??DataTable33  ;; LED_buffer
   \   00000016   0020               MOVS     R0,#+0
   \   00000018   ........           BL       shift_line_left
    585          
    586            memset(cfAG,'\0',16);
   \   0000001C   1022               MOVS     R2,#+16
   \   0000001E   0021               MOVS     R1,#+0
   \   00000020   ....               LDR.N    R0,??DataTable34  ;; cfAG
   \   00000022   ........           BL       memset
    587            shift_line_leftG(0,BackupG.COM);
   \   00000026   ....               LDR.N    R1,??DataTable35  ;; BackupG
   \   00000028   0020               MOVS     R0,#+0
   \   0000002A   ........           BL       shift_line_leftG
    588            shift_line_leftG(0,LED_bufferG.COM);
   \   0000002E   ....               LDR.N    R1,??DataTable36  ;; LED_bufferG
   \   00000030   0020               MOVS     R0,#+0
   \   00000032   ........           BL       shift_line_leftG
    589          }
   \   00000036   01BD               POP      {R0,PC}          ;; return
    590          

   \                                 In section .text, align 4, keep-with-next
    591          void Shift_Line2_left(void)
    592          {
   \                     Shift_Line2_left:
   \   00000000   80B5               PUSH     {R7,LR}
    593          
    594            memset(cfA,'\0',16);
   \   00000002   1022               MOVS     R2,#+16
   \   00000004   0021               MOVS     R1,#+0
   \   00000006   ....               LDR.N    R0,??DataTable31  ;; cfA
   \   00000008   ........           BL       memset
    595            shift_line_left(1,Backup.COM);
   \   0000000C   ....               LDR.N    R1,??DataTable32  ;; Backup
   \   0000000E   0120               MOVS     R0,#+1
   \   00000010   ........           BL       shift_line_left
    596            shift_line_left(1,LED_buffer.COM);
   \   00000014   ....               LDR.N    R1,??DataTable33  ;; LED_buffer
   \   00000016   0120               MOVS     R0,#+1
   \   00000018   ........           BL       shift_line_left
    597          
    598            memset(cfAG,'\0',16);
   \   0000001C   1022               MOVS     R2,#+16
   \   0000001E   0021               MOVS     R1,#+0
   \   00000020   ....               LDR.N    R0,??DataTable34  ;; cfAG
   \   00000022   ........           BL       memset
    599            shift_line_leftG(1,BackupG.COM);
   \   00000026   ....               LDR.N    R1,??DataTable35  ;; BackupG
   \   00000028   0120               MOVS     R0,#+1
   \   0000002A   ........           BL       shift_line_leftG
    600            shift_line_leftG(1,LED_bufferG.COM);
   \   0000002E   ....               LDR.N    R1,??DataTable36  ;; LED_bufferG
   \   00000030   0120               MOVS     R0,#+1
   \   00000032   ........           BL       shift_line_leftG
    601          }
   \   00000036   01BD               POP      {R0,PC}          ;; return
    602          

   \                                 In section .text, align 4, keep-with-next
    603          void rcl(unsigned char *ch)
    604          {
    605            unsigned char temp;
    606            temp=cf;
   \                     rcl:
   \   00000000   ....               LDR.N    R2,??DataTable38  ;; cf
   \   00000002   1278               LDRB     R2,[R2, #+0]
   \   00000004   1100               MOVS     R1,R2
    607            cf = ( (*ch & 0x80) != 0 );
   \   00000006   0278               LDRB     R2,[R0, #+0]
   \   00000008   12F08003           ANDS     R3,R2,#0x80
   \   0000000C   5A1E               SUBS     R2,R3,#+1
   \   0000000E   9241               SBCS     R2,R2,R2
   \   00000010   D243               MVNS     R2,R2
   \   00000012   D20F               LSRS     R2,R2,#+31
   \   00000014   ....               LDR.N    R3,??DataTable38  ;; cf
   \   00000016   1A70               STRB     R2,[R3, #+0]
    608            *ch= (*ch << 1) |  temp ;
   \   00000018   0278               LDRB     R2,[R0, #+0]
   \   0000001A   D2B2               UXTB     R2,R2            ;; ZeroExt  R2,R2,#+24,#+24
   \   0000001C   51EA4202           ORRS     R2,R1,R2, LSL #+1
   \   00000020   0270               STRB     R2,[R0, #+0]
    609          }
   \   00000022   7047               BX       LR               ;; return
    610          

   \                                 In section .text, align 4, keep-with-next
    611          void rclG(unsigned char *ch)
    612          {
    613            unsigned char temp;
    614            temp=cfG;
   \                     rclG:
   \   00000000   ....               LDR.N    R2,??DataTable40  ;; cfG
   \   00000002   1278               LDRB     R2,[R2, #+0]
   \   00000004   1100               MOVS     R1,R2
    615            cfG = ( (*ch & 0x80) != 0 );
   \   00000006   0278               LDRB     R2,[R0, #+0]
   \   00000008   12F08003           ANDS     R3,R2,#0x80
   \   0000000C   5A1E               SUBS     R2,R3,#+1
   \   0000000E   9241               SBCS     R2,R2,R2
   \   00000010   D243               MVNS     R2,R2
   \   00000012   D20F               LSRS     R2,R2,#+31
   \   00000014   ....               LDR.N    R3,??DataTable40  ;; cfG
   \   00000016   1A70               STRB     R2,[R3, #+0]
    616            *ch= (*ch << 1) |  temp ;
   \   00000018   0278               LDRB     R2,[R0, #+0]
   \   0000001A   D2B2               UXTB     R2,R2            ;; ZeroExt  R2,R2,#+24,#+24
   \   0000001C   51EA4202           ORRS     R2,R1,R2, LSL #+1
   \   00000020   0270               STRB     R2,[R0, #+0]
    617          }
   \   00000022   7047               BX       LR               ;; return
    618          
    619          
    620          
    621          #ifdef _HardWare
    622          #else //BC6
    623          void __fastcall TForm1::FormShow(TObject *Sender)
    624          {
    625            int i,j,ret;
    626            Panel2->Width = LED_byte_Length*32+19;//19;
    627            Panel2->Left = (Panel1->Width - Panel2->Width)/2+5;
    628            #if  LED_byte_Length == 10 && LEDType == 50
    629              lblType->Caption="AS210";
    630            #endif
    631            #if  LED_byte_Length == 10 && LEDType == 51
    632              lblType->Caption="AS210R";
    633            #endif
    634            #if  LED_byte_Length == 10 && LEDType == 70
    635              lblType->Caption="AS212";
    636            #endif
    637            #if  LED_byte_Length == 10 && LEDType == 71
    638              lblType->Caption="AS212R";
    639            #endif
    640            #if  LED_byte_Length == 20 && LEDType == 50
    641              lblType->Caption="AS220";
    642            #endif
    643            #if  LED_byte_Length == 20 && LEDType == 51
    644              lblType->Caption="AS220R";
    645            #endif
    646            #if  LED_byte_Length == 20 && LEDType == 70
    647              lblType->Caption="AS222";
    648            #endif
    649            #if  LED_byte_Length == 20 && LEDType == 71
    650              lblType->Caption="AS222R";
    651            #endif  
    652            //Panel2->Top = (Panel1->Top - Panel2->Top)/2+5;
    653            Relay(clBlack);
    654            for(i=0;i<=16;i++){
    655              for(j=0;j < LED_byte_Length*8;j++){
    656                  LEDShape[i][j].x=10+j*4;
    657                  LEDShape[i][j].y=10+i*4;
    658              }
    659            }
    660            //OpenPort(1);
    661            //PDispThread->Resume();
    662            //PUartThread->Resume();
    663          }
    664          #endif
    665          
    666          
    667          #ifdef _HardWare
    668          // see LPC2210.c
    669          #else //BC6
    670          //---------------------------------------------------------------------------
    671          void Relay(int color)
    672          {
    673            TCanvas *pCanvas = Form1->Image1->Canvas;
    674            pCanvas->Brush->Color = color;
    675            pCanvas->Brush->Style = bsSolid;
    676            pCanvas->Ellipse(0, 0, 20, 20);
    677          }
    678          #endif
    679          
    680          #ifdef _HardWare

   \                                 In section .text, align 4, keep-with-next
    681          void DelayUs(int Us)
    682          {
    683          	int i,j;
    684          	for(j=0;j<Us/1000;j++)
   \                     DelayUs:
   \   00000000   0023               MOVS     R3,#+0
   \   00000002   1A00               MOVS     R2,R3
   \                     ??DelayUs_0:
   \   00000004   4FF47A73           MOV      R3,#+1000
   \   00000008   90FBF3F3           SDIV     R3,R0,R3
   \   0000000C   9A42               CMP      R2,R3
   \   0000000E   07DA               BGE.N    ??DelayUs_1
    685          	{
    686          		for(i=0;i<20;i++)
   \   00000010   0023               MOVS     R3,#+0
   \   00000012   1900               MOVS     R1,R3
   \                     ??DelayUs_2:
   \   00000014   1429               CMP      R1,#+20
   \   00000016   01DA               BGE.N    ??DelayUs_3
   \   00000018   491C               ADDS     R1,R1,#+1
   \   0000001A   FBE7               B.N      ??DelayUs_2
    687          		{}
    688          }
   \                     ??DelayUs_3:
   \   0000001C   521C               ADDS     R2,R2,#+1
   \   0000001E   F1E7               B.N      ??DelayUs_0
    689          
    690          }
   \                     ??DelayUs_1:
   \   00000020   7047               BX       LR               ;; return
    691          #else
    692          void DelayUs(__int64 Us)
    693          {
    694              LARGE_INTEGER CurrTicks, TicksCount; 
    695          
    696              QueryPerformanceFrequency( &TicksCount );
    697              QueryPerformanceCounter( &CurrTicks );
    698          
    699              TicksCount.QuadPart = TicksCount.QuadPart * Us / 1000000i64;
    700              TicksCount.QuadPart += CurrTicks.QuadPart; 
    701          
    702              while(CurrTicks.QuadPart<TicksCount.QuadPart){                                           
    703                  Application->ProcessMessages();
    704                  if (EndFlag) break;
    705                  QueryPerformanceCounter( &CurrTicks );
    706              }    
    707          }
    708          #endif
    709          

   \                                 In section .text, align 4, keep-with-next
    710          void clr_buf(unsigned char buf[16][LED_byte_Length])
    711          {
    712            int i,j;
    713            for(i=0;i<16;i++)
   \                     clr_buf:
   \   00000000   0023               MOVS     R3,#+0
   \   00000002   1900               MOVS     R1,R3
   \                     ??clr_buf_0:
   \   00000004   1029               CMP      R1,#+16
   \   00000006   0EDA               BGE.N    ??clr_buf_1
    714              for(j=0;j<LED_byte_Length;j++)
   \   00000008   0023               MOVS     R3,#+0
   \   0000000A   1A00               MOVS     R2,R3
   \                     ??clr_buf_2:
   \   0000000C   0A2A               CMP      R2,#+10
   \   0000000E   08DA               BGE.N    ??clr_buf_3
    715                 buf[i][j]='\0';
   \   00000010   0A23               MOVS     R3,#+10
   \   00000012   01FB0303           MLA      R3,R1,R3,R0
   \   00000016   5FF0000C           MOVS     R12,#+0
   \   0000001A   02F803C0           STRB     R12,[R2, R3]
   \   0000001E   521C               ADDS     R2,R2,#+1
   \   00000020   F4E7               B.N      ??clr_buf_2
   \                     ??clr_buf_3:
   \   00000022   491C               ADDS     R1,R1,#+1
   \   00000024   EEE7               B.N      ??clr_buf_0
    716          }
   \                     ??clr_buf_1:
   \   00000026   7047               BX       LR               ;; return
    717          
    718          
    719          
    720          #ifdef _HardWare
    721          #else //BC6
    722          void __fastcall TForm1::FormCreate(TObject *Sender)
    723          {
    724             PDispThread = new DispThread(true);
    725             PUartThread = new UartThread(true);
    726             PSelfTest = new SelfTest(true);
    727          }
    728          //---------------------------------------------------------------------------
    729          #endif
    730          
    731          #ifdef _HardWare
    732          
    733          #else
    734          bool OpenPort(int PortNum)
    735          {
    736            int ret;
    737            ret = sio_open(PortNum);
    738            if (ret != SIO_OK ){
    739              sio_close (PortNum);
    740              return false;
    741            }
    742            ret = sio_ioctl(PortNum,  B19200, P_NONE | BIT_8 | STOP_1 );
    743            if (ret != SIO_OK ){
    744              sio_close (PortNum);
    745              return false;
    746            }
    747            return true;
    748          }
    749          #endif
    750          
    751          

   \                                 In section .text, align 4, keep-with-next
    752          void UART1receive(void)
    753          {
   \                     UART1receive:
   \   00000000   80B5               PUSH     {R7,LR}
    754          #ifdef _HardWare
    755            //  gUartRecTmp=U1RBR;			// Read Rxd Data 	   
    756          #else 
    757             if (Form1->ComboBox1->ItemIndex != 0 )
    758               gUartRecTmp = sio_getch( 1 );
    759          #endif
    760             if ( (gUartRecTmp == STX || gUartRecTmp == SUB || gUartRecTmp == SYN ) && gWRecLen < 6){
   \   00000002   6548               LDR.N    R0,??UART1receive_0  ;; gUartRecTmp
   \   00000004   0078               LDRB     R0,[R0, #+0]
   \   00000006   0228               CMP      R0,#+2
   \   00000008   07D0               BEQ.N    ??UART1receive_1
   \   0000000A   6348               LDR.N    R0,??UART1receive_0  ;; gUartRecTmp
   \   0000000C   0078               LDRB     R0,[R0, #+0]
   \   0000000E   1A28               CMP      R0,#+26
   \   00000010   03D0               BEQ.N    ??UART1receive_1
   \   00000012   6148               LDR.N    R0,??UART1receive_0  ;; gUartRecTmp
   \   00000014   0078               LDRB     R0,[R0, #+0]
   \   00000016   1628               CMP      R0,#+22
   \   00000018   14D1               BNE.N    ??UART1receive_2
   \                     ??UART1receive_1:
   \   0000001A   6048               LDR.N    R0,??UART1receive_0+0x4  ;; gWRecLen
   \   0000001C   0068               LDR      R0,[R0, #+0]
   \   0000001E   0628               CMP      R0,#+6
   \   00000020   10D2               BCS.N    ??UART1receive_2
    761                RevFlag = 1;
   \   00000022   5F48               LDR.N    R0,??UART1receive_0+0x8  ;; RevFlag
   \   00000024   0121               MOVS     R1,#+1
   \   00000026   0170               STRB     R1,[R0, #+0]
    762                if (RevBuffIndex < 6){
   \   00000028   5E48               LDR.N    R0,??UART1receive_0+0xC  ;; RevBuffIndex
   \   0000002A   0068               LDR      R0,[R0, #+0]
   \   0000002C   0628               CMP      R0,#+6
   \   0000002E   0ED2               BCS.N    ??UART1receive_3
    763                  gWRecLen=0 ;
   \   00000030   5A48               LDR.N    R0,??UART1receive_0+0x4  ;; gWRecLen
   \   00000032   0021               MOVS     R1,#+0
   \   00000034   0160               STR      R1,[R0, #+0]
    764                  UartChkSum=0;      
   \   00000036   5C48               LDR.N    R0,??UART1receive_0+0x10  ;; UartChkSum
   \   00000038   0021               MOVS     R1,#+0
   \   0000003A   0180               STRH     R1,[R0, #+0]
    765                  RevBuffIndex=0;
   \   0000003C   5948               LDR.N    R0,??UART1receive_0+0xC  ;; RevBuffIndex
   \   0000003E   0021               MOVS     R1,#+0
   \   00000040   0160               STR      R1,[R0, #+0]
   \   00000042   04E0               B.N      ??UART1receive_3
    766                }    
    767             }else if (RevFlag == 0) 
   \                     ??UART1receive_2:
   \   00000044   5648               LDR.N    R0,??UART1receive_0+0x8  ;; RevFlag
   \   00000046   0078               LDRB     R0,[R0, #+0]
   \   00000048   0028               CMP      R0,#+0
   \   0000004A   00F0A480           BEQ.W    ??UART1receive_4
    768               return;                 
    769             if ( gUartRecTmp != 0x03 )
   \                     ??UART1receive_3:
   \   0000004E   5248               LDR.N    R0,??UART1receive_0  ;; gUartRecTmp
   \   00000050   0078               LDRB     R0,[R0, #+0]
   \   00000052   0328               CMP      R0,#+3
   \   00000054   00F08680           BEQ.W    ??UART1receive_5
    770             {    
    771             	if( flg_ESC == 0 )
   \   00000058   5448               LDR.N    R0,??UART1receive_0+0x14  ;; flg_ESC
   \   0000005A   0078               LDRB     R0,[R0, #+0]
   \   0000005C   0028               CMP      R0,#+0
   \   0000005E   42D1               BNE.N    ??UART1receive_6
    772                  { 
    773                    if( gUartRecTmp != 0x1B ){
   \   00000060   4D48               LDR.N    R0,??UART1receive_0  ;; gUartRecTmp
   \   00000062   0078               LDRB     R0,[R0, #+0]
   \   00000064   1B28               CMP      R0,#+27
   \   00000066   3AD0               BEQ.N    ??UART1receive_7
    774                      gWRecBuff[gWRecLen++]=gUartRecTmp;    // copy data to REC buffer
   \   00000068   4C48               LDR.N    R0,??UART1receive_0+0x4  ;; gWRecLen
   \   0000006A   0068               LDR      R0,[R0, #+0]
   \   0000006C   5049               LDR.N    R1,??UART1receive_0+0x18  ;; gWRecBuff
   \   0000006E   4A4A               LDR.N    R2,??UART1receive_0  ;; gUartRecTmp
   \   00000070   1278               LDRB     R2,[R2, #+0]
   \   00000072   4254               STRB     R2,[R0, R1]
   \   00000074   4948               LDR.N    R0,??UART1receive_0+0x4  ;; gWRecLen
   \   00000076   0068               LDR      R0,[R0, #+0]
   \   00000078   401C               ADDS     R0,R0,#+1
   \   0000007A   4849               LDR.N    R1,??UART1receive_0+0x4  ;; gWRecLen
   \   0000007C   0860               STR      R0,[R1, #+0]
    775                      if (gWRecLen==1)
   \   0000007E   4748               LDR.N    R0,??UART1receive_0+0x4  ;; gWRecLen
   \   00000080   0068               LDR      R0,[R0, #+0]
   \   00000082   0128               CMP      R0,#+1
   \   00000084   07D1               BNE.N    ??UART1receive_8
    776                        RevCommand=gWRecBuff[gWRecLen-1];                        
   \   00000086   4548               LDR.N    R0,??UART1receive_0+0x4  ;; gWRecLen
   \   00000088   0068               LDR      R0,[R0, #+0]
   \   0000008A   4949               LDR.N    R1,??UART1receive_0+0x18  ;; gWRecBuff
   \   0000008C   4018               ADDS     R0,R0,R1
   \   0000008E   10F8010C           LDRB     R0,[R0, #-1]
   \   00000092   4849               LDR.N    R1,??UART1receive_0+0x1C  ;; RevCommand
   \   00000094   0870               STRB     R0,[R1, #+0]
    777                      UartChkSum=(UartChkSum+gWRecBuff[gWRecLen-1]) & 0xFFFF; 
   \                     ??UART1receive_8:
   \   00000096   4448               LDR.N    R0,??UART1receive_0+0x10  ;; UartChkSum
   \   00000098   0088               LDRH     R0,[R0, #+0]
   \   0000009A   4049               LDR.N    R1,??UART1receive_0+0x4  ;; gWRecLen
   \   0000009C   0968               LDR      R1,[R1, #+0]
   \   0000009E   444A               LDR.N    R2,??UART1receive_0+0x18  ;; gWRecBuff
   \   000000A0   8918               ADDS     R1,R1,R2
   \   000000A2   11F8011C           LDRB     R1,[R1, #-1]
   \   000000A6   0818               ADDS     R0,R1,R0
   \   000000A8   3F49               LDR.N    R1,??UART1receive_0+0x10  ;; UartChkSum
   \   000000AA   0880               STRH     R0,[R1, #+0]
    778                      if ( (gWRecLen-1) >= 14 && RevCommand == STX)
   \   000000AC   3B48               LDR.N    R0,??UART1receive_0+0x4  ;; gWRecLen
   \   000000AE   0068               LDR      R0,[R0, #+0]
   \   000000B0   401E               SUBS     R0,R0,#+1
   \   000000B2   0E28               CMP      R0,#+14
   \   000000B4   4AD3               BCC.N    ??UART1receive_9
   \   000000B6   3F48               LDR.N    R0,??UART1receive_0+0x1C  ;; RevCommand
   \   000000B8   0078               LDRB     R0,[R0, #+0]
   \   000000BA   0228               CMP      R0,#+2
   \   000000BC   46D1               BNE.N    ??UART1receive_9
    779                        RevBuff[RevBuffIndex++]= gWRecBuff[gWRecLen-1];          
   \   000000BE   3748               LDR.N    R0,??UART1receive_0+0x4  ;; gWRecLen
   \   000000C0   0068               LDR      R0,[R0, #+0]
   \   000000C2   3B49               LDR.N    R1,??UART1receive_0+0x18  ;; gWRecBuff
   \   000000C4   4018               ADDS     R0,R0,R1
   \   000000C6   10F8010C           LDRB     R0,[R0, #-1]
   \   000000CA   3649               LDR.N    R1,??UART1receive_0+0xC  ;; RevBuffIndex
   \   000000CC   0968               LDR      R1,[R1, #+0]
   \   000000CE   3A4A               LDR.N    R2,??UART1receive_0+0x20  ;; RevBuff
   \   000000D0   8854               STRB     R0,[R1, R2]
   \   000000D2   3448               LDR.N    R0,??UART1receive_0+0xC  ;; RevBuffIndex
   \   000000D4   0068               LDR      R0,[R0, #+0]
   \   000000D6   401C               ADDS     R0,R0,#+1
   \   000000D8   3249               LDR.N    R1,??UART1receive_0+0xC  ;; RevBuffIndex
   \   000000DA   0860               STR      R0,[R1, #+0]
   \   000000DC   36E0               B.N      ??UART1receive_9
    780                    }else{
    781                      flg_ESC = 1 ;
   \                     ??UART1receive_7:
   \   000000DE   3348               LDR.N    R0,??UART1receive_0+0x14  ;; flg_ESC
   \   000000E0   0121               MOVS     R1,#+1
   \   000000E2   0170               STRB     R1,[R0, #+0]
   \   000000E4   32E0               B.N      ??UART1receive_9
    782                    }  
    783                  }
    784                  else
    785                  {
    786                    gWRecBuff[gWRecLen++] = gUartRecTmp ^ 0xFF ;    // invert data to REC buffer    
   \                     ??UART1receive_6:
   \   000000E6   2D48               LDR.N    R0,??UART1receive_0+0x4  ;; gWRecLen
   \   000000E8   0068               LDR      R0,[R0, #+0]
   \   000000EA   3149               LDR.N    R1,??UART1receive_0+0x18  ;; gWRecBuff
   \   000000EC   2A4A               LDR.N    R2,??UART1receive_0  ;; gUartRecTmp
   \   000000EE   1278               LDRB     R2,[R2, #+0]
   \   000000F0   92F0FF02           EORS     R2,R2,#0xFF
   \   000000F4   4254               STRB     R2,[R0, R1]
   \   000000F6   2948               LDR.N    R0,??UART1receive_0+0x4  ;; gWRecLen
   \   000000F8   0068               LDR      R0,[R0, #+0]
   \   000000FA   401C               ADDS     R0,R0,#+1
   \   000000FC   2749               LDR.N    R1,??UART1receive_0+0x4  ;; gWRecLen
   \   000000FE   0860               STR      R0,[R1, #+0]
    787                    UartChkSum=(UartChkSum+gWRecBuff[gWRecLen-1]) & 0xFFFF;
   \   00000100   2948               LDR.N    R0,??UART1receive_0+0x10  ;; UartChkSum
   \   00000102   0088               LDRH     R0,[R0, #+0]
   \   00000104   2549               LDR.N    R1,??UART1receive_0+0x4  ;; gWRecLen
   \   00000106   0968               LDR      R1,[R1, #+0]
   \   00000108   294A               LDR.N    R2,??UART1receive_0+0x18  ;; gWRecBuff
   \   0000010A   8918               ADDS     R1,R1,R2
   \   0000010C   11F8011C           LDRB     R1,[R1, #-1]
   \   00000110   0818               ADDS     R0,R1,R0
   \   00000112   2549               LDR.N    R1,??UART1receive_0+0x10  ;; UartChkSum
   \   00000114   0880               STRH     R0,[R1, #+0]
    788                    if ( (gWRecLen-1) >= 14 && RevCommand==STX )
   \   00000116   2148               LDR.N    R0,??UART1receive_0+0x4  ;; gWRecLen
   \   00000118   0068               LDR      R0,[R0, #+0]
   \   0000011A   401E               SUBS     R0,R0,#+1
   \   0000011C   0E28               CMP      R0,#+14
   \   0000011E   12D3               BCC.N    ??UART1receive_10
   \   00000120   2448               LDR.N    R0,??UART1receive_0+0x1C  ;; RevCommand
   \   00000122   0078               LDRB     R0,[R0, #+0]
   \   00000124   0228               CMP      R0,#+2
   \   00000126   0ED1               BNE.N    ??UART1receive_10
    789                      RevBuff[RevBuffIndex++]= gWRecBuff[gWRecLen-1];                            
   \   00000128   1C48               LDR.N    R0,??UART1receive_0+0x4  ;; gWRecLen
   \   0000012A   0068               LDR      R0,[R0, #+0]
   \   0000012C   2049               LDR.N    R1,??UART1receive_0+0x18  ;; gWRecBuff
   \   0000012E   4018               ADDS     R0,R0,R1
   \   00000130   10F8010C           LDRB     R0,[R0, #-1]
   \   00000134   1B49               LDR.N    R1,??UART1receive_0+0xC  ;; RevBuffIndex
   \   00000136   0968               LDR      R1,[R1, #+0]
   \   00000138   1F4A               LDR.N    R2,??UART1receive_0+0x20  ;; RevBuff
   \   0000013A   8854               STRB     R0,[R1, R2]
   \   0000013C   1948               LDR.N    R0,??UART1receive_0+0xC  ;; RevBuffIndex
   \   0000013E   0068               LDR      R0,[R0, #+0]
   \   00000140   401C               ADDS     R0,R0,#+1
   \   00000142   1849               LDR.N    R1,??UART1receive_0+0xC  ;; RevBuffIndex
   \   00000144   0860               STR      R0,[R1, #+0]
    790                    flg_ESC = 0 ;
   \                     ??UART1receive_10:
   \   00000146   1948               LDR.N    R0,??UART1receive_0+0x14  ;; flg_ESC
   \   00000148   0021               MOVS     R1,#+0
   \   0000014A   0170               STRB     R1,[R0, #+0]
    791                  } 
    792           
    793                  if ( gWRecLen >= MAXLEN_2K5 )
   \                     ??UART1receive_9:
   \   0000014C   1348               LDR.N    R0,??UART1receive_0+0x4  ;; gWRecLen
   \   0000014E   0068               LDR      R0,[R0, #+0]
   \   00000150   40F6C411           MOVW     R1,#+2500
   \   00000154   8842               CMP      R0,R1
   \   00000156   1ED3               BCC.N    ??UART1receive_4
    794                     gWRecLen--;           
   \   00000158   1048               LDR.N    R0,??UART1receive_0+0x4  ;; gWRecLen
   \   0000015A   0068               LDR      R0,[R0, #+0]
   \   0000015C   401E               SUBS     R0,R0,#+1
   \   0000015E   0F49               LDR.N    R1,??UART1receive_0+0x4  ;; gWRecLen
   \   00000160   0860               STR      R0,[R1, #+0]
   \   00000162   18E0               B.N      ??UART1receive_4
    795            }
    796            else if( gWRecLen != 0 )
   \                     ??UART1receive_5:
   \   00000164   0D48               LDR.N    R0,??UART1receive_0+0x4  ;; gWRecLen
   \   00000166   0068               LDR      R0,[R0, #+0]
   \   00000168   0028               CMP      R0,#+0
   \   0000016A   14D0               BEQ.N    ??UART1receive_4
    797            {
    798              RevFlag=0;
   \   0000016C   0C48               LDR.N    R0,??UART1receive_0+0x8  ;; RevFlag
   \   0000016E   0021               MOVS     R1,#+0
   \   00000170   0170               STRB     R1,[R0, #+0]
    799              #ifdef _HardWare
    800                if ( UpdateFlg == 1 )  
   \   00000172   1248               LDR.N    R0,??UART1receive_0+0x24  ;; UpdateFlg
   \   00000174   0078               LDRB     R0,[R0, #+0]
   \   00000176   0128               CMP      R0,#+1
   \   00000178   02D1               BNE.N    ??UART1receive_11
    801                  UART_pro_entry();//;new version
   \   0000017A   ........           BL       UART_pro_entry
   \   0000017E   01E0               B.N      ??UART1receive_12
    802                else
    803                  UART_pro(); //old version   
   \                     ??UART1receive_11:
   \   00000180   ........           BL       UART_pro
    804              #else//BCB
    805                #ifdef BCB_New_Version
    806                  UART_pro_entry();//;new version              
    807                #else
    808                  UART_pro(); //old version 
    809                #endif    
    810              #endif
    811                       
    812          
    813              gWRecLen=0 ;
   \                     ??UART1receive_12:
   \   00000184   0548               LDR.N    R0,??UART1receive_0+0x4  ;; gWRecLen
   \   00000186   0021               MOVS     R1,#+0
   \   00000188   0160               STR      R1,[R0, #+0]
    814              UartChkSum=0;
   \   0000018A   0748               LDR.N    R0,??UART1receive_0+0x10  ;; UartChkSum
   \   0000018C   0021               MOVS     R1,#+0
   \   0000018E   0180               STRH     R1,[R0, #+0]
    815              RevCommand=0;
   \   00000190   0848               LDR.N    R0,??UART1receive_0+0x1C  ;; RevCommand
   \   00000192   0021               MOVS     R1,#+0
   \   00000194   0170               STRB     R1,[R0, #+0]
   \                     ??UART1receive_4:
   \   00000196   01BD               POP      {R0,PC}          ;; return
   \                     ??UART1receive_0:
   \   00000198   ........           DC32     gUartRecTmp
   \   0000019C   ........           DC32     gWRecLen
   \   000001A0   ........           DC32     RevFlag
   \   000001A4   ........           DC32     RevBuffIndex
   \   000001A8   ........           DC32     UartChkSum
   \   000001AC   ........           DC32     flg_ESC
   \   000001B0   ........           DC32     gWRecBuff
   \   000001B4   ........           DC32     RevCommand
   \   000001B8   ........           DC32     RevBuff
   \   000001BC   ........           DC32     UpdateFlg
    816            }
    817            
    818          }
    819          
    820          #ifdef _HardWare
    821          #else //BC6
    822          int Host_SendNext(unsigned char *value,int n)
    823          {
    824          
    825                  sio_write( 1, value, n);
    826          
    827                  return (1);
    828          }
    829          #endif
    830          
    831          
    832          
    833          /*int get_next_id(int cnt)
    834          {
    835            int i;
    836            if ( get_bit(mail_bits,UartID) == 1 )//mail drop id
    837              return ( UartID );
    838            for(i=0;i<24;i++){
    839              mau_flag = ( mau_flag + 1 ) % cnt;
    840              if ( get_bit(mail_bits,mau_flag) == 0 ) break;//message id
    841            }  
    842            return ( mau_flag );
    843          }
    844          
    845          int get_next_priid(int cnt)
    846          {
    847            pgc_flag = ( pgc_flag + 1 ) % cnt;
    848            return ( pgc_flag + 24 );
    849          } */
    850          
    851          
    852          
    853          
    854          #ifdef _HardWare
    855          #else //BC6
    856          void __fastcall TForm1::Button2Click(TObject *Sender)
    857          {
    858            if (ComboBox1->ItemIndex != 0 ){
    859              OpenPort(ComboBox1->ItemIndex);
    860              PUartThread->Resume();
    861            }
    862            PDispThread->Priority = tpTimeCritical;
    863            PDispThread->Resume();
    864            PSelfTest->Resume();
    865            Button2->Enabled = false;
    866            if (ComboBox1->ItemIndex == 0 ){
    867              Form1->Height = GroupBox3->Top + GroupBox3->Height + 100;
    868              GroupBox3->Visible = true;
    869            }  
    870          }
    871          //---------------------------------------------------------------------------
    872          
    873          void __fastcall TForm1::Timer1Timer(TObject *Sender)
    874          {
    875             timer_counter = ( timer_counter + 1 ) % 10000;
    876             if ( rly_counter > 0 )
    877               rly_counter--;
    878             else
    879               Relay(clBlack);
    880              // P9.5 = 0;
    881             if ( primsg_flag == 0 ) 
    882               nml_timer = ( nml_timer + 1 ) % 10000;
    883          }
    884          //---------------------------------------------------------------------------
    885          
    886          void __fastcall TForm1::Button1Click(TObject *Sender)
    887          {
    888            Button2->Enabled=true;
    889            Panel3->Visible=false;
    890          }
    891          //---------------------------------------------------------------------------
    892          #endif
    893          
    894          
    895          #ifdef _HardWare

   \                                 In section .text, align 4, keep-with-next
    896          void Send_Alpha(void)
    897          {
    898          }
   \                     Send_Alpha:
   \   00000000   7047               BX       LR               ;; return
    899          #else //BC6
    900          void Send_Alpha()
    901          {
    902            unsigned char value[3000];
    903            unsigned char HexBuf[3000],tmp[3000];
    904            unsigned short len,ChkSum=0,ip=0;
    905            unsigned char *SendBuffPT,try1,k;
    906            int count,i,j;
    907            time_t timer;
    908            struct tm *tblock;
    909             timer = time(NULL);
    910          
    911            tblock = localtime(&timer);
    912            ip=0;
    913            value[ip++]=STX;
    914            value[ip++]=0x80;//htag
    915            value[ip++]=Form1->edtID->Text.ToInt()+0x21;
    916            if (Form1->cboLang->ItemIndex==0)
    917              value[ip++]='a';//Normal
    918            else
    919              value[ip++]='r';//Russian
    920            value[ip++]=tblock->tm_mon+0x21; //Month
    921            value[ip++]=tblock->tm_mday+0x20;//days
    922            value[ip++]=tblock->tm_hour+0x20;//hours
    923            value[ip++]=tblock->tm_min+0x20; //minutes
    924            len=Form1->mem1->Text.Length();
    925            if (Form1->cboForm->ItemIndex==1) len /=2;
    926            value[ip++]= len >> 8 ;
    927            value[ip++]= len & 0x00FF;
    928            if (Form1->cboForm->ItemIndex==1){
    929              for( i = 1,j=0 ; i <= Form1->mem1->Text.Length() ; i += 2 , j++ )
    930                value[ip+j] =(unsigned char)("0x" + Form1->mem1->Text.SubString(i , 2 )).ToInt() ;
    931              ip += j;
    932            }else{
    933              memcpy(value+ip,Form1->mem1->Text.c_str(),len);
    934              ip = ip + len;
    935            }
    936            for(count=0;count <ip;count++)
    937              ChkSum=(ChkSum+value[count]) & 0xFFFF;
    938            value[ip++]=ChkSum >> 8;
    939            value[ip++]=ChkSum & 0x00FF;
    940            len=PreProcess(value,ip);
    941            value[len++]=0x03; //ETX
    942            for(i=0;i<len;i++){
    943              gUartRecTmp = value[i];
    944              UART1receive();
    945            }
    946            //Send_CmdE(value,0,len);
    947          }
    948          #endif
    949          
    950          
    951          //----------------------------------------------------------------------------

   \                                 In section .text, align 4, keep-with-next
    952          int PreProcess(unsigned char buf[],int len)
    953          {
   \                     PreProcess:
   \   00000000   F0B5               PUSH     {R4-R7,LR}
   \   00000002   CDB0               SUB      SP,SP,#+308
   \   00000004   ADF5E84D           SUB      SP,SP,#+29696
   \   00000008   0400               MOVS     R4,R0
   \   0000000A   0D00               MOVS     R5,R1
    954            unsigned char retbuf[30000]={0};
   \   0000000C   00A8               ADD      R0,SP,#+0
   \   0000000E   47F23051           MOVW     R1,#+30000
   \   00000012   ........           BL       __aeabi_memclr4
    955            int i=0,ri=0;
   \   00000016   0020               MOVS     R0,#+0
   \   00000018   0600               MOVS     R6,R0
   \   0000001A   0020               MOVS     R0,#+0
   \   0000001C   0700               MOVS     R7,R0
    956            while (i<len){
   \                     ??PreProcess_0:
   \   0000001E   AE42               CMP      R6,R5
   \   00000020   1DDA               BGE.N    ??PreProcess_1
    957              if (buf[i]==03){
   \   00000022   305D               LDRB     R0,[R6, R4]
   \   00000024   0328               CMP      R0,#+3
   \   00000026   08D1               BNE.N    ??PreProcess_2
    958                retbuf[ri++]=ESC;
   \   00000028   00A8               ADD      R0,SP,#+0
   \   0000002A   1B21               MOVS     R1,#+27
   \   0000002C   3954               STRB     R1,[R7, R0]
   \   0000002E   7F1C               ADDS     R7,R7,#+1
    959                retbuf[ri++]=0xFC;
   \   00000030   00A8               ADD      R0,SP,#+0
   \   00000032   FC21               MOVS     R1,#+252
   \   00000034   3954               STRB     R1,[R7, R0]
   \   00000036   7F1C               ADDS     R7,R7,#+1
   \   00000038   0FE0               B.N      ??PreProcess_3
    960              }else if (buf[i]==ESC){
   \                     ??PreProcess_2:
   \   0000003A   305D               LDRB     R0,[R6, R4]
   \   0000003C   1B28               CMP      R0,#+27
   \   0000003E   08D1               BNE.N    ??PreProcess_4
    961                retbuf[ri++]=ESC;
   \   00000040   00A8               ADD      R0,SP,#+0
   \   00000042   1B21               MOVS     R1,#+27
   \   00000044   3954               STRB     R1,[R7, R0]
   \   00000046   7F1C               ADDS     R7,R7,#+1
    962                retbuf[ri++]=0xE4;
   \   00000048   00A8               ADD      R0,SP,#+0
   \   0000004A   E421               MOVS     R1,#+228
   \   0000004C   3954               STRB     R1,[R7, R0]
   \   0000004E   7F1C               ADDS     R7,R7,#+1
   \   00000050   03E0               B.N      ??PreProcess_3
    963              }else
    964                retbuf[ri++]=buf[i];
   \                     ??PreProcess_4:
   \   00000052   305D               LDRB     R0,[R6, R4]
   \   00000054   00A9               ADD      R1,SP,#+0
   \   00000056   7854               STRB     R0,[R7, R1]
   \   00000058   7F1C               ADDS     R7,R7,#+1
    965              i++;
   \                     ??PreProcess_3:
   \   0000005A   761C               ADDS     R6,R6,#+1
   \   0000005C   DFE7               B.N      ??PreProcess_0
    966            }
    967            memcpy(buf,retbuf,ri);
   \                     ??PreProcess_1:
   \   0000005E   3A00               MOVS     R2,R7
   \   00000060   00A9               ADD      R1,SP,#+0
   \   00000062   2000               MOVS     R0,R4
   \   00000064   ........           BL       memcpy
    968            return (ri);
   \   00000068   3800               MOVS     R0,R7
   \   0000006A   4DB0               ADD      SP,SP,#+308
   \   0000006C   0DF5E84D           ADD      SP,SP,#+29696
   \   00000070   F0BD               POP      {R4-R7,PC}       ;; return
    969          }

   \                                 In section .text, align 4, keep-with-next
   \                     ??DataTable20:
   \   00000000   ........           DC32     RecProcessing

   \                                 In section .text, align 4, keep-with-next
   \                     ??DataTable21:
   \   00000000   ........           DC32     FlashWriFlg

   \                                 In section .text, align 4, keep-with-next
   \                     ??DataTable31:
   \   00000000   ........           DC32     cfA

   \                                 In section .text, align 4, keep-with-next
   \                     ??DataTable32:
   \   00000000   ........           DC32     Backup

   \                                 In section .text, align 4, keep-with-next
   \                     ??DataTable33:
   \   00000000   ........           DC32     LED_buffer

   \                                 In section .text, align 4, keep-with-next
   \                     ??DataTable34:
   \   00000000   ........           DC32     cfAG

   \                                 In section .text, align 4, keep-with-next
   \                     ??DataTable35:
   \   00000000   ........           DC32     BackupG

   \                                 In section .text, align 4, keep-with-next
   \                     ??DataTable36:
   \   00000000   ........           DC32     LED_bufferG

   \                                 In section .text, align 4, keep-with-next
   \                     ??DataTable38:
   \   00000000   ........           DC32     cf

   \                                 In section .text, align 4, keep-with-next
   \                     ??DataTable40:
   \   00000000   ........           DC32     cfG

   \                                 In section .rodata, align 4
   \                     `?<Constant "Jan">`:
   \   00000000   4A616E00           DC8 "Jan"

   \                                 In section .rodata, align 4
   \                     `?<Constant "Fev">`:
   \   00000000   46657600           DC8 "Fev"

   \                                 In section .rodata, align 4
   \                     `?<Constant "Mar">`:
   \   00000000   4D617200           DC8 "Mar"

   \                                 In section .rodata, align 4
   \                     `?<Constant "Avr">`:
   \   00000000   41767200           DC8 "Avr"

   \                                 In section .rodata, align 4
   \                     `?<Constant "Mai">`:
   \   00000000   4D616900           DC8 "Mai"

   \                                 In section .rodata, align 4
   \                     `?<Constant "Jun">`:
   \   00000000   4A756E00           DC8 "Jun"

   \                                 In section .rodata, align 4
   \                     `?<Constant "Jul">`:
   \   00000000   4A756C00           DC8 "Jul"

   \                                 In section .rodata, align 4
   \                     `?<Constant "Aou">`:
   \   00000000   416F7500           DC8 "Aou"

   \                                 In section .rodata, align 4
   \                     `?<Constant "Sep">`:
   \   00000000   53657000           DC8 "Sep"

   \                                 In section .rodata, align 4
   \                     `?<Constant "Oct">`:
   \   00000000   4F637400           DC8 "Oct"

   \                                 In section .rodata, align 4
   \                     `?<Constant "Nov">`:
   \   00000000   4E6F7600           DC8 "Nov"

   \                                 In section .rodata, align 4
   \                     `?<Constant "Dec">`:
   \   00000000   44656300           DC8 "Dec"

   \                                 In section .rodata, align 4
   \                     `?<Constant "Feb">`:
   \   00000000   46656200           DC8 "Feb"

   \                                 In section .rodata, align 4
   \                     `?<Constant "Apr">`:
   \   00000000   41707200           DC8 "Apr"

   \                                 In section .rodata, align 4
   \                     `?<Constant "May">`:
   \   00000000   4D617900           DC8 "May"

   \                                 In section .rodata, align 4
   \                     `?<Constant "Aug">`:
   \   00000000   41756700           DC8 "Aug"

   \                                 In section .rodata, align 4
   \   00000000   000000000000       DC8 0, 0, 0, 0, 0, 0, 0, 0, 0, 0, 0, 0, 0, 0, 0, 0, 0
   \              000000000000
   \              0000000000  
   \   00000011   000000000000       DC8 0, 0, 0, 0, 0, 0, 0, 0, 0, 0, 0, 0, 0, 0, 0, 0
   \              000000000000
   \              00000000    
   \   00000021   000000000000       DC8 0, 0, 0, 0, 0, 0, 0, 0, 0, 0, 0, 0, 0, 0, 0, 0
   \              000000000000
   \              00000000    
   \   00000031   000000000000       DC8 0, 0, 0, 0, 0, 0, 0, 0, 0, 0, 0, 0, 0, 0, 0, 0
   \              000000000000
   \              00000000    
   \   00000041   000000000000       DC8 0, 0, 0, 0, 0, 0, 0, 0, 0, 0, 0, 0, 0, 0, 0, 0
   \              000000000000
   \              00000000    
   \   00000051   000000000000       DC8 0, 0, 0, 0, 0, 0, 0, 0, 0, 0, 0, 0, 0, 0, 0, 0
   \              000000000000
   \              00000000    
   \   00000061   000000000000       DC8 0, 0, 0, 0, 0, 0, 0, 0, 0, 0, 0, 0, 0, 0, 0, 0
   \              000000000000
   \              00000000    
   \   00000071   000000000000       DC8 0, 0, 0, 0, 0, 0, 0, 0, 0, 0, 0, 0, 0, 0, 0, 0
   \              000000000000
   \              00000000    
   \   00000081   000000000000       DC8 0, 0, 0, 0, 0, 0, 0, 0, 0, 0, 0, 0, 0, 0, 0, 0
   \              000000000000
   \              00000000    
   \   00000091   000000000000       DC8 0, 0, 0, 0, 0, 0, 0, 0, 0, 0, 0, 0, 0, 0, 0, 0
   \              000000000000
   \              00000000    
   \   000000A1   000000000000       DC8 0, 0, 0, 0, 0, 0, 0, 0, 0, 0, 0, 0, 0, 0, 0, 0
   \              000000000000
   \              00000000    
   \   000000B1   000000000000       DC8 0, 0, 0, 0, 0, 0, 0, 0, 0, 0, 0, 0, 0, 0, 0, 0
   \              000000000000
   \              00000000    
   \   000000C1   000000000000       DC8 0, 0, 0, 0, 0, 0, 0, 0, 0, 0, 0, 0, 0, 0, 0, 0
   \              000000000000
   \              00000000    
   \   000000D1   000000000000       DC8 0, 0, 0, 0, 0, 0, 0, 0, 0, 0, 0, 0, 0, 0, 0, 0
   \              000000000000
   \              00000000    
   \   000000E1   000000000000       DC8 0, 0, 0, 0, 0, 0, 0, 0, 0, 0, 0, 0, 0, 0, 0, 0
   \              000000000000
   \              00000000    
   \   000000F1   000000000000       DC8 0, 0, 0, 0, 0, 0, 0, 0, 0, 0, 0, 0, 0, 0, 0, 0
   \              000000000000
   \              00000000    
   \   00000101   000000000000       DC8 0, 0, 0, 0, 0, 0, 0, 0, 0, 0, 0, 0, 0, 0, 0, 0
   \              000000000000
   \              00000000    
   \   00000111   000000000000       DC8 0, 0, 0, 0, 0, 0, 0, 0, 0, 0, 0, 0, 0, 0, 0, 0
   \              000000000000
   \              00000000    
   \   00000121   000000000000       DC8 0, 0, 0, 0, 0, 0, 0, 0, 0, 0, 0, 0, 0, 0, 0, 0
   \              000000000000
   \              00000000    
   \   00000131   000000000000       DC8 0, 0, 0, 0, 0, 0, 0, 0, 0, 0, 0, 0, 0, 0, 0, 0
   \              000000000000
   \              00000000    
   \   00000141   000000000000       DC8 0, 0, 0, 0, 0, 0, 0, 0, 0, 0, 0, 0, 0, 0, 0, 0
   \              000000000000
   \              00000000    
   \   00000151   000000000000       DC8 0, 0, 0, 0, 0, 0, 0, 0, 0, 0, 0, 0, 0, 0, 0, 0
   \              000000000000
   \              00000000    
   \   00000161   000000000000       DC8 0, 0, 0, 0, 0, 0, 0, 0, 0, 0, 0, 0, 0, 0, 0, 0
   \              000000000000
   \              00000000    
   \   00000171   000000000000       DC8 0, 0, 0, 0, 0, 0, 0, 0, 0, 0, 0, 0, 0, 0, 0, 0
   \              000000000000
   \              00000000    
   \   00000181   000000000000       DC8 0, 0, 0, 0, 0, 0, 0, 0, 0, 0, 0, 0, 0, 0, 0, 0
   \              000000000000
   \              00000000    
   \   00000191   000000000000       DC8 0, 0, 0, 0, 0, 0, 0, 0, 0, 0, 0, 0, 0, 0, 0, 0
   \              000000000000
   \              00000000    
   \   000001A1   000000000000       DC8 0, 0, 0, 0, 0, 0, 0, 0, 0, 0, 0, 0, 0, 0, 0, 0
   \              000000000000
   \              00000000    
   \   000001B1   000000000000       DC8 0, 0, 0, 0, 0, 0, 0, 0, 0, 0, 0, 0, 0, 0, 0, 0
   \              000000000000
   \              00000000    
   \   000001C1   000000000000       DC8 0, 0, 0, 0, 0, 0, 0, 0, 0, 0, 0, 0, 0, 0, 0, 0
   \              000000000000
   \              00000000    
   \   000001D1   000000000000       DC8 0, 0, 0, 0, 0, 0, 0, 0, 0, 0, 0, 0, 0, 0, 0, 0
   \              000000000000
   \              00000000    
   \   000001E1   000000000000       DC8 0, 0, 0, 0, 0, 0, 0, 0, 0, 0, 0, 0, 0, 0, 0, 0
   \              000000000000
   \              00000000    
   \   000001F1   000000000000       DC8 0, 0, 0, 0, 0, 0, 0, 0, 0, 0, 0, 0, 0, 0, 0, 0
   \              000000000000
   \              00000000    
   \   00000201   000000000000       DC8 0, 0, 0, 0, 0, 0, 0, 0, 0, 0, 0, 0, 0, 0, 0, 0
   \              000000000000
   \              00000000    
   \   00000211   000000000000       DC8 0, 0, 0, 0, 0, 0, 0, 0, 0, 0, 0, 0, 0, 0, 0, 0
   \              000000000000
   \              00000000    
   \   00000221   000000000000       DC8 0, 0, 0, 0, 0, 0, 0, 0, 0, 0, 0, 0, 0, 0, 0, 0
   \              000000000000
   \              00000000    
   \   00000231   000000000000       DC8 0, 0, 0, 0, 0, 0, 0, 0, 0, 0, 0, 0, 0, 0, 0, 0
   \              000000000000
   \              00000000    
   \   00000241   000000000000       DC8 0, 0, 0, 0, 0, 0, 0, 0, 0, 0, 0, 0, 0, 0, 0, 0
   \              000000000000
   \              00000000    
   \   00000251   000000000000       DC8 0, 0, 0, 0, 0, 0, 0, 0, 0, 0, 0, 0, 0, 0, 0, 0
   \              000000000000
   \              00000000    
   \   00000261   000000000000       DC8 0, 0, 0, 0, 0, 0, 0, 0, 0, 0, 0, 0, 0, 0, 0, 0
   \              000000000000
   \              00000000    
   \   00000271   000000000000       DC8 0, 0, 0, 0, 0, 0, 0, 0, 0, 0, 0, 0, 0, 0, 0, 0
   \              000000000000
   \              00000000    
   \   00000281   000000000000       DC8 0, 0, 0, 0, 0, 0, 0, 0, 0, 0, 0, 0, 0, 0, 0, 0
   \              000000000000
   \              00000000    
   \   00000291   000000000000       DC8 0, 0, 0, 0, 0, 0, 0, 0, 0, 0, 0, 0, 0, 0, 0, 0
   \              000000000000
   \              00000000    
   \   000002A1   000000000000       DC8 0, 0, 0, 0, 0, 0, 0, 0, 0, 0, 0, 0, 0, 0, 0, 0
   \              000000000000
   \              00000000    
   \   000002B1   000000000000       DC8 0, 0, 0, 0, 0, 0, 0, 0, 0, 0, 0, 0, 0, 0, 0, 0
   \              000000000000
   \              00000000    
   \   000002C1   000000000000       DC8 0, 0, 0, 0, 0, 0, 0, 0, 0, 0, 0, 0, 0, 0, 0, 0
   \              000000000000
   \              00000000    
   \   000002D1   000000000000       DC8 0, 0, 0, 0, 0, 0, 0, 0, 0, 0, 0, 0, 0, 0, 0, 0
   \              000000000000
   \              00000000    
   \   000002E1   000000000000       DC8 0, 0, 0, 0, 0, 0, 0, 0, 0, 0, 0, 0, 0, 0, 0, 0
   \              000000000000
   \              00000000    
   \   000002F1   000000000000       DC8 0, 0, 0, 0, 0, 0, 0, 0, 0, 0, 0, 0, 0, 0, 0, 0
   \              000000000000
   \              00000000    
   \   00000301   000000000000       DC8 0, 0, 0, 0, 0, 0, 0, 0, 0, 0, 0, 0, 0, 0, 0, 0
   \              000000000000
   \              00000000    
   \   00000311   000000000000       DC8 0, 0, 0, 0, 0, 0, 0, 0, 0, 0, 0, 0, 0, 0, 0, 0
   \              000000000000
   \              00000000    
   \   00000321   000000000000       DC8 0, 0, 0, 0, 0, 0, 0, 0, 0, 0, 0, 0, 0, 0, 0, 0
   \              000000000000
   \              00000000    
   \   00000331   000000000000       DC8 0, 0, 0, 0, 0, 0, 0, 0, 0, 0, 0, 0, 0, 0, 0, 0
   \              000000000000
   \              00000000    
   \   00000341   000000000000       DC8 0, 0, 0, 0, 0, 0, 0, 0, 0, 0, 0, 0, 0, 0, 0, 0
   \              000000000000
   \              00000000    
   \   00000351   000000000000       DC8 0, 0, 0, 0, 0, 0, 0, 0, 0, 0, 0, 0, 0, 0, 0, 0
   \              000000000000
   \              00000000    
   \   00000361   000000000000       DC8 0, 0, 0, 0, 0, 0, 0, 0, 0, 0, 0, 0, 0, 0, 0, 0
   \              000000000000
   \              00000000    
   \   00000371   000000000000       DC8 0, 0, 0, 0, 0, 0, 0, 0, 0, 0, 0, 0, 0, 0, 0, 0
   \              000000000000
   \              00000000    
   \   00000381   000000000000       DC8 0, 0, 0, 0, 0, 0, 0, 0, 0, 0, 0, 0, 0, 0, 0, 0
   \              000000000000
   \              00000000    
   \   00000391   000000000000       DC8 0, 0, 0, 0, 0, 0, 0, 0, 0, 0, 0, 0, 0, 0, 0, 0
   \              000000000000
   \              00000000    
   \   000003A1   000000000000       DC8 0, 0, 0, 0, 0, 0, 0, 0, 0, 0, 0, 0, 0, 0, 0, 0
   \              000000000000
   \              00000000    
   \   000003B1   000000000000       DC8 0, 0, 0, 0, 0, 0, 0, 0, 0, 0, 0, 0, 0, 0, 0, 0
   \              000000000000
   \              00000000    
   \   000003C1   000000000000       DC8 0, 0, 0, 0, 0, 0, 0, 0, 0, 0, 0, 0, 0, 0, 0, 0
   \              000000000000
   \              00000000    
   \   000003D1   000000000000       DC8 0, 0, 0, 0, 0, 0, 0, 0, 0, 0, 0, 0, 0, 0, 0, 0
   \              000000000000
   \              00000000    
   \   000003E1   000000000000       DC8 0, 0, 0, 0, 0, 0, 0, 0, 0, 0, 0, 0, 0, 0, 0, 0
   \              000000000000
   \              00000000    
   \   000003F1   000000000000       DC8 0, 0, 0, 0, 0, 0, 0, 0, 0, 0, 0, 0, 0, 0, 0, 0
   \              000000000000
   \              00000000    
   \   00000401   000000000000       DC8 0, 0, 0, 0, 0, 0, 0, 0, 0, 0, 0, 0, 0, 0, 0, 0
   \              000000000000
   \              00000000    
   \   00000411   000000000000       DC8 0, 0, 0, 0, 0, 0, 0, 0, 0, 0, 0, 0, 0, 0, 0, 0
   \              000000000000
   \              00000000    
   \   00000421   000000000000       DC8 0, 0, 0, 0, 0, 0, 0, 0, 0, 0, 0, 0, 0, 0, 0, 0
   \              000000000000
   \              00000000    
   \   00000431   000000000000       DC8 0, 0, 0, 0, 0, 0, 0, 0, 0, 0, 0, 0, 0, 0, 0, 0
   \              000000000000
   \              00000000    
   \   00000441   000000000000       DC8 0, 0, 0, 0, 0, 0, 0, 0, 0, 0, 0, 0, 0, 0, 0, 0
   \              000000000000
   \              00000000    
   \   00000451   000000000000       DC8 0, 0, 0, 0, 0, 0, 0, 0, 0, 0, 0, 0, 0, 0, 0, 0
   \              000000000000
   \              00000000    
   \   00000461   000000000000       DC8 0, 0, 0, 0, 0, 0, 0, 0, 0, 0, 0, 0, 0, 0, 0, 0
   \              000000000000
   \              00000000    
   \   00000471   000000000000       DC8 0, 0, 0, 0, 0, 0, 0, 0, 0, 0, 0, 0, 0, 0, 0, 0
   \              000000000000
   \              00000000    
   \   00000481   000000000000       DC8 0, 0, 0, 0, 0, 0, 0, 0, 0, 0, 0, 0, 0, 0, 0, 0
   \              000000000000
   \              00000000    
   \   00000491   000000000000       DC8 0, 0, 0, 0, 0, 0, 0, 0, 0, 0, 0, 0, 0, 0, 0, 0
   \              000000000000
   \              00000000    
   \   000004A1   000000000000       DC8 0, 0, 0, 0, 0, 0, 0, 0, 0, 0, 0, 0, 0, 0, 0, 0
   \              000000000000
   \              00000000    
   \   000004B1   000000000000       DC8 0, 0, 0, 0, 0, 0, 0, 0, 0, 0, 0, 0, 0, 0, 0, 0
   \              000000000000
   \              00000000    
   \   000004C1   000000000000       DC8 0, 0, 0, 0, 0, 0, 0, 0, 0, 0, 0, 0, 0, 0, 0, 0
   \              000000000000
   \              00000000    
   \   000004D1   000000000000       DC8 0, 0, 0, 0, 0, 0, 0, 0, 0, 0, 0, 0, 0, 0, 0, 0
   \              000000000000
   \              00000000    
   \   000004E1   000000000000       DC8 0, 0, 0, 0, 0, 0, 0, 0, 0, 0, 0, 0, 0, 0, 0, 0
   \              000000000000
   \              00000000    
   \   000004F1   000000000000       DC8 0, 0, 0, 0, 0, 0, 0, 0, 0, 0, 0, 0, 0, 0, 0, 0
   \              000000000000
   \              00000000    
   \   00000501   000000000000       DC8 0, 0, 0, 0, 0, 0, 0, 0, 0, 0, 0, 0, 0, 0, 0, 0
   \              000000000000
   \              00000000    
   \   00000511   000000000000       DC8 0, 0, 0, 0, 0, 0, 0, 0, 0, 0, 0, 0, 0, 0, 0, 0
   \              000000000000
   \              00000000    
   \   00000521   000000000000       DC8 0, 0, 0, 0, 0, 0, 0, 0, 0, 0, 0, 0, 0, 0, 0, 0
   \              000000000000
   \              00000000    
   \   00000531   000000000000       DC8 0, 0, 0, 0, 0, 0, 0, 0, 0, 0, 0, 0, 0, 0, 0, 0
   \              000000000000
   \              00000000    
   \   00000541   000000000000       DC8 0, 0, 0, 0, 0, 0, 0, 0, 0, 0, 0, 0, 0, 0, 0, 0
   \              000000000000
   \              00000000    
   \   00000551   000000000000       DC8 0, 0, 0, 0, 0, 0, 0, 0, 0, 0, 0, 0, 0, 0, 0, 0
   \              000000000000
   \              00000000    
   \   00000561   000000000000       DC8 0, 0, 0, 0, 0, 0, 0, 0, 0, 0, 0, 0, 0, 0, 0, 0
   \              000000000000
   \              00000000    
   \   00000571   000000000000       DC8 0, 0, 0, 0, 0, 0, 0, 0, 0, 0, 0, 0, 0, 0, 0, 0
   \              000000000000
   \              00000000    
   \   00000581   000000000000       DC8 0, 0, 0, 0, 0, 0, 0, 0, 0, 0, 0, 0, 0, 0, 0, 0
   \              000000000000
   \              00000000    
   \   00000591   000000000000       DC8 0, 0, 0, 0, 0, 0, 0, 0, 0, 0, 0, 0, 0, 0, 0, 0
   \              000000000000
   \              00000000    
   \   000005A1   000000000000       DC8 0, 0, 0, 0, 0, 0, 0, 0, 0, 0, 0, 0, 0, 0, 0, 0
   \              000000000000
   \              00000000    
   \   000005B1   000000000000       DC8 0, 0, 0, 0, 0, 0, 0, 0, 0, 0, 0, 0, 0, 0, 0, 0
   \              000000000000
   \              00000000    
   \   000005C1   000000000000       DC8 0, 0, 0, 0, 0, 0, 0, 0, 0, 0, 0, 0, 0, 0, 0, 0
   \              000000000000
   \              00000000    
   \   000005D1   000000000000       DC8 0, 0, 0, 0, 0, 0, 0, 0, 0, 0, 0, 0, 0, 0, 0, 0
   \              000000000000
   \              00000000    
   \   000005E1   000000000000       DC8 0, 0, 0, 0, 0, 0, 0, 0, 0, 0, 0, 0, 0, 0, 0, 0
   \              000000000000
   \              00000000    
   \   000005F1   000000000000       DC8 0, 0, 0, 0, 0, 0, 0, 0, 0, 0, 0, 0, 0, 0, 0, 0
   \              000000000000
   \              00000000    
   \   00000601   000000000000       DC8 0, 0, 0, 0, 0, 0, 0, 0, 0, 0, 0, 0, 0, 0, 0, 0
   \              000000000000
   \              00000000    
   \   00000611   000000000000       DC8 0, 0, 0, 0, 0, 0, 0, 0, 0, 0, 0, 0, 0, 0, 0, 0
   \              000000000000
   \              00000000    
   \   00000621   000000000000       DC8 0, 0, 0, 0, 0, 0, 0, 0, 0, 0, 0, 0, 0, 0, 0, 0
   \              000000000000
   \              00000000    
   \   00000631   000000000000       DC8 0, 0, 0, 0, 0, 0, 0, 0, 0, 0, 0, 0, 0, 0, 0, 0
   \              000000000000
   \              00000000    
   \   00000641   000000000000       DC8 0, 0, 0, 0, 0, 0, 0, 0, 0, 0, 0, 0, 0, 0, 0, 0
   \              000000000000
   \              00000000    
   \   00000651   000000000000       DC8 0, 0, 0, 0, 0, 0, 0, 0, 0, 0, 0, 0, 0, 0, 0, 0
   \              000000000000
   \              00000000    
   \   00000661   000000000000       DC8 0, 0, 0, 0, 0, 0, 0, 0, 0, 0, 0, 0, 0, 0, 0, 0
   \              000000000000
   \              00000000    
   \   00000671   000000000000       DC8 0, 0, 0, 0, 0, 0, 0, 0, 0, 0, 0, 0, 0, 0, 0, 0
   \              000000000000
   \              00000000    
   \   00000681   000000000000       DC8 0, 0, 0, 0, 0, 0, 0, 0, 0, 0, 0, 0, 0, 0, 0, 0
   \              000000000000
   \              00000000    
   \   00000691   000000000000       DC8 0, 0, 0, 0, 0, 0, 0, 0, 0, 0, 0, 0, 0, 0, 0, 0
   \              000000000000
   \              00000000    
   \   000006A1   000000000000       DC8 0, 0, 0, 0, 0, 0, 0, 0, 0, 0, 0, 0, 0, 0, 0, 0
   \              000000000000
   \              00000000    
   \   000006B1   000000000000       DC8 0, 0, 0, 0, 0, 0, 0, 0, 0, 0, 0, 0, 0, 0, 0, 0
   \              000000000000
   \              00000000    
   \   000006C1   000000000000       DC8 0, 0, 0, 0, 0, 0, 0, 0, 0, 0, 0, 0, 0, 0, 0, 0
   \              000000000000
   \              00000000    
   \   000006D1   000000000000       DC8 0, 0, 0, 0, 0, 0, 0, 0, 0, 0, 0, 0, 0, 0, 0, 0
   \              000000000000
   \              00000000    
   \   000006E1   000000000000       DC8 0, 0, 0, 0, 0, 0, 0, 0, 0, 0, 0, 0, 0, 0, 0, 0
   \              000000000000
   \              00000000    
   \   000006F1   000000000000       DC8 0, 0, 0, 0, 0, 0, 0, 0, 0, 0, 0, 0, 0, 0, 0, 0
   \              000000000000
   \              00000000    
   \   00000701   000000000000       DC8 0, 0, 0, 0, 0, 0, 0, 0, 0, 0, 0, 0, 0, 0, 0, 0
   \              000000000000
   \              00000000    
   \   00000711   000000000000       DC8 0, 0, 0, 0, 0, 0, 0, 0, 0, 0, 0, 0, 0, 0, 0, 0
   \              000000000000
   \              00000000    
   \   00000721   000000000000       DC8 0, 0, 0, 0, 0, 0, 0, 0, 0, 0, 0, 0, 0, 0, 0, 0
   \              000000000000
   \              00000000    
   \   00000731   000000000000       DC8 0, 0, 0, 0, 0, 0, 0, 0, 0, 0, 0, 0, 0, 0, 0, 0
   \              000000000000
   \              00000000    
   \   00000741   000000000000       DC8 0, 0, 0, 0, 0, 0, 0, 0, 0, 0, 0, 0, 0, 0, 0, 0
   \              000000000000
   \              00000000    
   \   00000751   000000000000       DC8 0, 0, 0, 0, 0, 0, 0, 0, 0, 0, 0, 0, 0, 0, 0, 0
   \              000000000000
   \              00000000    
   \   00000761   000000000000       DC8 0, 0, 0, 0, 0, 0, 0, 0, 0, 0, 0, 0, 0, 0, 0, 0
   \              000000000000
   \              00000000    
   \   00000771   000000000000       DC8 0, 0, 0, 0, 0, 0, 0, 0, 0, 0, 0, 0, 0, 0, 0, 0
   \              000000000000
   \              00000000    
   \   00000781   000000000000       DC8 0, 0, 0, 0, 0, 0, 0, 0, 0, 0, 0, 0, 0, 0, 0, 0
   \              000000000000
   \              00000000    
   \   00000791   000000000000       DC8 0, 0, 0, 0, 0, 0, 0, 0, 0, 0, 0, 0, 0, 0, 0, 0
   \              000000000000
   \              00000000    
   \   000007A1   000000000000       DC8 0, 0, 0, 0, 0, 0, 0, 0, 0, 0, 0, 0, 0, 0, 0, 0
   \              000000000000
   \              00000000    
   \   000007B1   000000000000       DC8 0, 0, 0, 0, 0, 0, 0, 0, 0, 0, 0, 0, 0, 0, 0, 0
   \              000000000000
   \              00000000    
   \   000007C1   000000000000       DC8 0, 0, 0, 0, 0, 0, 0, 0, 0, 0, 0, 0, 0, 0, 0, 0
   \              000000000000
   \              00000000    
   \   000007D1   000000000000       DC8 0, 0, 0, 0, 0, 0, 0, 0, 0, 0, 0, 0, 0, 0, 0, 0
   \              000000000000
   \              00000000    
   \   000007E1   000000000000       DC8 0, 0, 0, 0, 0, 0, 0, 0, 0, 0, 0, 0, 0, 0, 0, 0
   \              000000000000
   \              00000000    
   \   000007F1   000000000000       DC8 0, 0, 0, 0, 0, 0, 0, 0, 0, 0, 0, 0, 0, 0, 0, 0
   \              000000000000
   \              00000000    
   \   00000801   000000000000       DC8 0, 0, 0, 0, 0, 0, 0, 0, 0, 0, 0, 0, 0, 0, 0, 0
   \              000000000000
   \              00000000    
   \   00000811   000000000000       DC8 0, 0, 0, 0, 0, 0, 0, 0, 0, 0, 0, 0, 0, 0, 0, 0
   \              000000000000
   \              00000000    
   \   00000821   000000000000       DC8 0, 0, 0, 0, 0, 0, 0, 0, 0, 0, 0, 0, 0, 0, 0, 0
   \              000000000000
   \              00000000    
   \   00000831   000000000000       DC8 0, 0, 0, 0, 0, 0, 0, 0, 0, 0, 0, 0, 0, 0, 0, 0
   \              000000000000
   \              00000000    
   \   00000841   000000000000       DC8 0, 0, 0, 0, 0, 0, 0, 0, 0, 0, 0, 0, 0, 0, 0, 0
   \              000000000000
   \              00000000    
   \   00000851   000000000000       DC8 0, 0, 0, 0, 0, 0, 0, 0, 0, 0, 0, 0, 0, 0, 0, 0
   \              000000000000
   \              00000000    
   \   00000861   000000000000       DC8 0, 0, 0, 0, 0, 0, 0, 0, 0, 0, 0, 0, 0, 0, 0, 0
   \              000000000000
   \              00000000    
   \   00000871   000000000000       DC8 0, 0, 0, 0, 0, 0, 0, 0, 0, 0, 0, 0, 0, 0, 0, 0
   \              000000000000
   \              00000000    
   \   00000881   000000000000       DC8 0, 0, 0, 0, 0, 0, 0, 0, 0, 0, 0, 0, 0, 0, 0, 0
   \              000000000000
   \              00000000    
   \   00000891   000000000000       DC8 0, 0, 0, 0, 0, 0, 0, 0, 0, 0, 0, 0, 0, 0, 0, 0
   \              000000000000
   \              00000000    
   \   000008A1   000000000000       DC8 0, 0, 0, 0, 0, 0, 0, 0, 0, 0, 0, 0, 0, 0, 0, 0
   \              000000000000
   \              00000000    
   \   000008B1   000000000000       DC8 0, 0, 0, 0, 0, 0, 0, 0, 0, 0, 0, 0, 0, 0, 0, 0
   \              000000000000
   \              00000000    
   \   000008C1   000000000000       DC8 0, 0, 0, 0, 0, 0, 0, 0, 0, 0, 0, 0, 0, 0, 0, 0
   \              000000000000
   \              00000000    
   \   000008D1   000000000000       DC8 0, 0, 0, 0, 0, 0, 0, 0, 0, 0, 0, 0, 0, 0, 0, 0
   \              000000000000
   \              00000000    
   \   000008E1   000000000000       DC8 0, 0, 0, 0, 0, 0, 0, 0, 0, 0, 0, 0, 0, 0, 0, 0
   \              000000000000
   \              00000000    
   \   000008F1   000000000000       DC8 0, 0, 0, 0, 0, 0, 0, 0, 0, 0, 0, 0, 0, 0, 0, 0
   \              000000000000
   \              00000000    
   \   00000901   000000000000       DC8 0, 0, 0, 0, 0, 0, 0, 0, 0, 0, 0, 0, 0, 0, 0, 0
   \              000000000000
   \              00000000    
   \   00000911   000000000000       DC8 0, 0, 0, 0, 0, 0, 0, 0, 0, 0, 0, 0, 0, 0, 0, 0
   \              000000000000
   \              00000000    
   \   00000921   000000000000       DC8 0, 0, 0, 0, 0, 0, 0, 0, 0, 0, 0, 0, 0, 0, 0, 0
   \              000000000000
   \              00000000    
   \   00000931   000000000000       DC8 0, 0, 0, 0, 0, 0, 0, 0, 0, 0, 0, 0, 0, 0, 0, 0
   \              000000000000
   \              00000000    
   \   00000941   000000000000       DC8 0, 0, 0, 0, 0, 0, 0, 0, 0, 0, 0, 0, 0, 0, 0, 0
   \              000000000000
   \              00000000    
   \   00000951   000000000000       DC8 0, 0, 0, 0, 0, 0, 0, 0, 0, 0, 0, 0, 0, 0, 0, 0
   \              000000000000
   \              00000000    
   \   00000961   000000000000       DC8 0, 0, 0, 0, 0, 0, 0, 0, 0, 0, 0, 0, 0, 0, 0, 0
   \              000000000000
   \              00000000    
   \   00000971   000000000000       DC8 0, 0, 0, 0, 0, 0, 0, 0, 0, 0, 0, 0, 0, 0, 0, 0
   \              000000000000
   \              00000000    
   \   00000981   000000000000       DC8 0, 0, 0, 0, 0, 0, 0, 0, 0, 0, 0, 0, 0, 0, 0, 0
   \              000000000000
   \              00000000    
   \   00000991   000000000000       DC8 0, 0, 0, 0, 0, 0, 0, 0, 0, 0, 0, 0, 0, 0, 0, 0
   \              000000000000
   \              00000000    
   \   000009A1   000000000000       DC8 0, 0, 0, 0, 0, 0, 0, 0, 0, 0, 0, 0, 0, 0, 0, 0
   \              000000000000
   \              00000000    
   \   000009B1   000000000000       DC8 0, 0, 0, 0, 0, 0, 0, 0, 0, 0, 0, 0, 0, 0, 0, 0
   \              000000000000
   \              00000000    
   \   000009C1   000000000000       DC8 0, 0, 0, 0, 0, 0, 0, 0, 0, 0, 0, 0, 0, 0, 0, 0
   \              000000000000
   \              00000000    
   \   000009D1   000000000000       DC8 0, 0, 0, 0, 0, 0, 0, 0, 0, 0, 0, 0, 0, 0, 0, 0
   \              000000000000
   \              00000000    
   \   000009E1   000000000000       DC8 0, 0, 0, 0, 0, 0, 0, 0, 0, 0, 0, 0, 0, 0, 0, 0
   \              000000000000
   \              00000000    
   \   000009F1   000000000000       DC8 0, 0, 0, 0, 0, 0, 0, 0, 0, 0, 0, 0, 0, 0, 0, 0
   \              000000000000
   \              00000000    
   \   00000A01   000000000000       DC8 0, 0, 0, 0, 0, 0, 0, 0, 0, 0, 0, 0, 0, 0, 0, 0
   \              000000000000
   \              00000000    
   \   00000A11   000000000000       DC8 0, 0, 0, 0, 0, 0, 0, 0, 0, 0, 0, 0, 0, 0, 0, 0
   \              000000000000
   \              00000000    
   \   00000A21   000000000000       DC8 0, 0, 0, 0, 0, 0, 0, 0, 0, 0, 0, 0, 0, 0, 0, 0
   \              000000000000
   \              00000000    
   \   00000A31   000000000000       DC8 0, 0, 0, 0, 0, 0, 0, 0, 0, 0, 0, 0, 0, 0, 0, 0
   \              000000000000
   \              00000000    
   \   00000A41   000000000000       DC8 0, 0, 0, 0, 0, 0, 0, 0, 0, 0, 0, 0, 0, 0, 0, 0
   \              000000000000
   \              00000000    
   \   00000A51   000000000000       DC8 0, 0, 0, 0, 0, 0, 0, 0, 0, 0, 0, 0, 0, 0, 0, 0
   \              000000000000
   \              00000000    
   \   00000A61   000000000000       DC8 0, 0, 0, 0, 0, 0, 0, 0, 0, 0, 0, 0, 0, 0, 0, 0
   \              000000000000
   \              00000000    
   \   00000A71   000000000000       DC8 0, 0, 0, 0, 0, 0, 0, 0, 0, 0, 0, 0, 0, 0, 0, 0
   \              000000000000
   \              00000000    
   \   00000A81   000000000000       DC8 0, 0, 0, 0, 0, 0, 0, 0, 0, 0, 0, 0, 0, 0, 0, 0
   \              000000000000
   \              00000000    
   \   00000A91   000000000000       DC8 0, 0, 0, 0, 0, 0, 0, 0, 0, 0, 0, 0, 0, 0, 0, 0
   \              000000000000
   \              00000000    
   \   00000AA1   000000000000       DC8 0, 0, 0, 0, 0, 0, 0, 0, 0, 0, 0, 0, 0, 0, 0, 0
   \              000000000000
   \              00000000    
   \   00000AB1   000000000000       DC8 0, 0, 0, 0, 0, 0, 0, 0, 0, 0, 0, 0, 0, 0, 0, 0
   \              000000000000
   \              00000000    
   \   00000AC1   000000000000       DC8 0, 0, 0, 0, 0, 0, 0, 0, 0, 0, 0, 0, 0, 0, 0, 0
   \              000000000000
   \              00000000    
   \   00000AD1   000000000000       DC8 0, 0, 0, 0, 0, 0, 0, 0, 0, 0, 0, 0, 0, 0, 0, 0
   \              000000000000
   \              00000000    
   \   00000AE1   000000000000       DC8 0, 0, 0, 0, 0, 0, 0, 0, 0, 0, 0, 0, 0, 0, 0, 0
   \              000000000000
   \              00000000    
   \   00000AF1   000000000000       DC8 0, 0, 0, 0, 0, 0, 0, 0, 0, 0, 0, 0, 0, 0, 0, 0
   \              000000000000
   \              00000000    
   \   00000B01   000000000000       DC8 0, 0, 0, 0, 0, 0, 0, 0, 0, 0, 0, 0, 0, 0, 0, 0
   \              000000000000
   \              00000000    
   \   00000B11   000000000000       DC8 0, 0, 0, 0, 0, 0, 0, 0, 0, 0, 0, 0, 0, 0, 0, 0
   \              000000000000
   \              00000000    
   \   00000B21   000000000000       DC8 0, 0, 0, 0, 0, 0, 0, 0, 0, 0, 0, 0, 0, 0, 0, 0
   \              000000000000
   \              00000000    
   \   00000B31   000000000000       DC8 0, 0, 0, 0, 0, 0, 0, 0, 0, 0, 0, 0, 0, 0, 0, 0
   \              000000000000
   \              00000000    
   \   00000B41   000000000000       DC8 0, 0, 0, 0, 0, 0, 0, 0, 0, 0, 0, 0, 0, 0, 0, 0
   \              000000000000
   \              00000000    
   \   00000B51   000000000000       DC8 0, 0, 0, 0, 0, 0, 0, 0, 0, 0, 0, 0, 0, 0, 0, 0
   \              000000000000
   \              00000000    
   \   00000B61   000000000000       DC8 0, 0, 0, 0, 0, 0, 0, 0, 0, 0, 0, 0, 0, 0, 0, 0
   \              000000000000
   \              00000000    
   \   00000B71   000000000000       DC8 0, 0, 0, 0, 0, 0, 0, 0, 0, 0, 0, 0, 0, 0, 0, 0
   \              000000000000
   \              00000000    
   \   00000B81   000000000000       DC8 0, 0, 0, 0, 0, 0, 0, 0, 0, 0, 0, 0, 0, 0, 0, 0
   \              000000000000
   \              00000000    
   \   00000B91   000000000000       DC8 0, 0, 0, 0, 0, 0, 0, 0, 0, 0, 0, 0, 0, 0, 0, 0
   \              000000000000
   \              00000000    
   \   00000BA1   000000000000       DC8 0, 0, 0, 0, 0, 0, 0, 0, 0, 0, 0, 0, 0, 0, 0, 0
   \              000000000000
   \              00000000    
   \   00000BB1   000000000000       DC8 0, 0, 0, 0, 0, 0, 0, 0, 0, 0, 0, 0, 0, 0, 0, 0
   \              000000000000
   \              00000000    
   \   00000BC1   000000000000       DC8 0, 0, 0, 0, 0, 0, 0, 0, 0, 0, 0, 0, 0, 0, 0, 0
   \              000000000000
   \              00000000    
   \   00000BD1   000000000000       DC8 0, 0, 0, 0, 0, 0, 0, 0, 0, 0, 0, 0, 0, 0, 0, 0
   \              000000000000
   \              00000000    
   \   00000BE1   000000000000       DC8 0, 0, 0, 0, 0, 0, 0, 0, 0, 0, 0, 0, 0, 0, 0, 0
   \              000000000000
   \              00000000    
   \   00000BF1   000000000000       DC8 0, 0, 0, 0, 0, 0, 0, 0, 0, 0, 0, 0, 0, 0, 0, 0
   \              000000000000
   \              00000000    
   \   00000C01   000000000000       DC8 0, 0, 0, 0, 0, 0, 0, 0, 0, 0, 0, 0, 0, 0, 0, 0
   \              000000000000
   \              00000000    
   \   00000C11   000000000000       DC8 0, 0, 0, 0, 0, 0, 0, 0, 0, 0, 0, 0, 0, 0, 0, 0
   \              000000000000
   \              00000000    
   \   00000C21   000000000000       DC8 0, 0, 0, 0, 0, 0, 0, 0, 0, 0, 0, 0, 0, 0, 0, 0
   \              000000000000
   \              00000000    
   \   00000C31   000000000000       DC8 0, 0, 0, 0, 0, 0, 0, 0, 0, 0, 0, 0, 0, 0, 0, 0
   \              000000000000
   \              00000000    
   \   00000C41   000000000000       DC8 0, 0, 0, 0, 0, 0, 0, 0, 0, 0, 0, 0, 0, 0, 0, 0
   \              000000000000
   \              00000000    
   \   00000C51   000000000000       DC8 0, 0, 0, 0, 0, 0, 0, 0, 0, 0, 0, 0, 0, 0, 0, 0
   \              000000000000
   \              00000000    
   \   00000C61   000000000000       DC8 0, 0, 0, 0, 0, 0, 0, 0, 0, 0, 0, 0, 0, 0, 0, 0
   \              000000000000
   \              00000000    
   \   00000C71   000000000000       DC8 0, 0, 0, 0, 0, 0, 0, 0, 0, 0, 0, 0, 0, 0, 0, 0
   \              000000000000
   \              00000000    
   \   00000C81   000000000000       DC8 0, 0, 0, 0, 0, 0, 0, 0, 0, 0, 0, 0, 0, 0, 0, 0
   \              000000000000
   \              00000000    
   \   00000C91   000000000000       DC8 0, 0, 0, 0, 0, 0, 0, 0, 0, 0, 0, 0, 0, 0, 0, 0
   \              000000000000
   \              00000000    
   \   00000CA1   000000000000       DC8 0, 0, 0, 0, 0, 0, 0, 0, 0, 0, 0, 0, 0, 0, 0, 0
   \              000000000000
   \              00000000    
   \   00000CB1   000000000000       DC8 0, 0, 0, 0, 0, 0, 0, 0, 0, 0, 0, 0, 0, 0, 0, 0
   \              000000000000
   \              00000000    
   \   00000CC1   000000000000       DC8 0, 0, 0, 0, 0, 0, 0, 0, 0, 0, 0, 0, 0, 0, 0, 0
   \              000000000000
   \              00000000    
   \   00000CD1   000000000000       DC8 0, 0, 0, 0, 0, 0, 0, 0, 0, 0, 0, 0, 0, 0, 0, 0
   \              000000000000
   \              00000000    
   \   00000CE1   000000000000       DC8 0, 0, 0, 0, 0, 0, 0, 0, 0, 0, 0, 0, 0, 0, 0, 0
   \              000000000000
   \              00000000    
   \   00000CF1   000000000000       DC8 0, 0, 0, 0, 0, 0, 0, 0, 0, 0, 0, 0, 0, 0, 0, 0
   \              000000000000
   \              00000000    
   \   00000D01   000000000000       DC8 0, 0, 0, 0, 0, 0, 0, 0, 0, 0, 0, 0, 0, 0, 0, 0
   \              000000000000
   \              00000000    
   \   00000D11   000000000000       DC8 0, 0, 0, 0, 0, 0, 0, 0, 0, 0, 0, 0, 0, 0, 0, 0
   \              000000000000
   \              00000000    
   \   00000D21   000000000000       DC8 0, 0, 0, 0, 0, 0, 0, 0, 0, 0, 0, 0, 0, 0, 0, 0
   \              000000000000
   \              00000000    
   \   00000D31   000000000000       DC8 0, 0, 0, 0, 0, 0, 0, 0, 0, 0, 0, 0, 0, 0, 0, 0
   \              000000000000
   \              00000000    
   \   00000D41   000000000000       DC8 0, 0, 0, 0, 0, 0, 0, 0, 0, 0, 0, 0, 0, 0, 0, 0
   \              000000000000
   \              00000000    
   \   00000D51   000000000000       DC8 0, 0, 0, 0, 0, 0, 0, 0, 0, 0, 0, 0, 0, 0, 0, 0
   \              000000000000
   \              00000000    
   \   00000D61   000000000000       DC8 0, 0, 0, 0, 0, 0, 0, 0, 0, 0, 0, 0, 0, 0, 0, 0
   \              000000000000
   \              00000000    
   \   00000D71   000000000000       DC8 0, 0, 0, 0, 0, 0, 0, 0, 0, 0, 0, 0, 0, 0, 0, 0
   \              000000000000
   \              00000000    
   \   00000D81   000000000000       DC8 0, 0, 0, 0, 0, 0, 0, 0, 0, 0, 0, 0, 0, 0, 0, 0
   \              000000000000
   \              00000000    
   \   00000D91   000000000000       DC8 0, 0, 0, 0, 0, 0, 0, 0, 0, 0, 0, 0, 0, 0, 0, 0
   \              000000000000
   \              00000000    
   \   00000DA1   000000000000       DC8 0, 0, 0, 0, 0, 0, 0, 0, 0, 0, 0, 0, 0, 0, 0, 0
   \              000000000000
   \              00000000    
   \   00000DB1   000000000000       DC8 0, 0, 0, 0, 0, 0, 0, 0, 0, 0, 0, 0, 0, 0, 0, 0
   \              000000000000
   \              00000000    
   \   00000DC1   000000000000       DC8 0, 0, 0, 0, 0, 0, 0, 0, 0, 0, 0, 0, 0, 0, 0, 0
   \              000000000000
   \              00000000    
   \   00000DD1   000000000000       DC8 0, 0, 0, 0, 0, 0, 0, 0, 0, 0, 0, 0, 0, 0, 0, 0
   \              000000000000
   \              00000000    
   \   00000DE1   000000000000       DC8 0, 0, 0, 0, 0, 0, 0, 0, 0, 0, 0, 0, 0, 0, 0, 0
   \              000000000000
   \              00000000    
   \   00000DF1   000000000000       DC8 0, 0, 0, 0, 0, 0, 0, 0, 0, 0, 0, 0, 0, 0, 0, 0
   \              000000000000
   \              00000000    
   \   00000E01   000000000000       DC8 0, 0, 0, 0, 0, 0, 0, 0, 0, 0, 0, 0, 0, 0, 0, 0
   \              000000000000
   \              00000000    
   \   00000E11   000000000000       DC8 0, 0, 0, 0, 0, 0, 0, 0, 0, 0, 0, 0, 0, 0, 0, 0
   \              000000000000
   \              00000000    
   \   00000E21   000000000000       DC8 0, 0, 0, 0, 0, 0, 0, 0, 0, 0, 0, 0, 0, 0, 0, 0
   \              000000000000
   \              00000000    
   \   00000E31   000000000000       DC8 0, 0, 0, 0, 0, 0, 0, 0, 0, 0, 0, 0, 0, 0, 0, 0
   \              000000000000
   \              00000000    
   \   00000E41   000000000000       DC8 0, 0, 0, 0, 0, 0, 0, 0, 0, 0, 0, 0, 0, 0, 0, 0
   \              000000000000
   \              00000000    
   \   00000E51   000000000000       DC8 0, 0, 0, 0, 0, 0, 0, 0, 0, 0, 0, 0, 0, 0, 0, 0
   \              000000000000
   \              00000000    
   \   00000E61   000000000000       DC8 0, 0, 0, 0, 0, 0, 0, 0, 0, 0, 0, 0, 0, 0, 0, 0
   \              000000000000
   \              00000000    
   \   00000E71   000000000000       DC8 0, 0, 0, 0, 0, 0, 0, 0, 0, 0, 0, 0, 0, 0, 0, 0
   \              000000000000
   \              00000000    
   \   00000E81   000000000000       DC8 0, 0, 0, 0, 0, 0, 0, 0, 0, 0, 0, 0, 0, 0, 0, 0
   \              000000000000
   \              00000000    
   \   00000E91   000000000000       DC8 0, 0, 0, 0, 0, 0, 0, 0, 0, 0, 0, 0, 0, 0, 0, 0
   \              000000000000
   \              00000000    
   \   00000EA1   000000000000       DC8 0, 0, 0, 0, 0, 0, 0, 0, 0, 0, 0, 0, 0, 0, 0, 0
   \              000000000000
   \              00000000    
   \   00000EB1   000000000000       DC8 0, 0, 0, 0, 0, 0, 0, 0, 0, 0, 0, 0, 0, 0, 0, 0
   \              000000000000
   \              00000000    
   \   00000EC1   000000000000       DC8 0, 0, 0, 0, 0, 0, 0, 0, 0, 0, 0, 0, 0, 0, 0, 0
   \              000000000000
   \              00000000    
   \   00000ED1   000000000000       DC8 0, 0, 0, 0, 0, 0, 0, 0, 0, 0, 0, 0, 0, 0, 0, 0
   \              000000000000
   \              00000000    
   \   00000EE1   000000000000       DC8 0, 0, 0, 0, 0, 0, 0, 0, 0, 0, 0, 0, 0, 0, 0, 0
   \              000000000000
   \              00000000    
   \   00000EF1   000000000000       DC8 0, 0, 0, 0, 0, 0, 0, 0, 0, 0, 0, 0, 0, 0, 0, 0
   \              000000000000
   \              00000000    
   \   00000F01   000000000000       DC8 0, 0, 0, 0, 0, 0, 0, 0, 0, 0, 0, 0, 0, 0, 0, 0
   \              000000000000
   \              00000000    
   \   00000F11   000000000000       DC8 0, 0, 0, 0, 0, 0, 0, 0, 0, 0, 0, 0, 0, 0, 0, 0
   \              000000000000
   \              00000000    
   \   00000F21   000000000000       DC8 0, 0, 0, 0, 0, 0, 0, 0, 0, 0, 0, 0, 0, 0, 0, 0
   \              000000000000
   \              00000000    
   \   00000F31   000000000000       DC8 0, 0, 0, 0, 0, 0, 0, 0, 0, 0, 0, 0, 0, 0, 0, 0
   \              000000000000
   \              00000000    
   \   00000F41   000000000000       DC8 0, 0, 0, 0, 0, 0, 0, 0, 0, 0, 0, 0, 0, 0, 0, 0
   \              000000000000
   \              00000000    
   \   00000F51   000000000000       DC8 0, 0, 0, 0, 0, 0, 0, 0, 0, 0, 0, 0, 0, 0, 0, 0
   \              000000000000
   \              00000000    
   \   00000F61   000000000000       DC8 0, 0, 0, 0, 0, 0, 0, 0, 0, 0, 0, 0, 0, 0, 0, 0
   \              000000000000
   \              00000000    
   \   00000F71   000000000000       DC8 0, 0, 0, 0, 0, 0, 0, 0, 0, 0, 0, 0, 0, 0, 0, 0
   \              000000000000
   \              00000000    
   \   00000F81   000000000000       DC8 0, 0, 0, 0, 0, 0, 0, 0, 0, 0, 0, 0, 0, 0, 0, 0
   \              000000000000
   \              00000000    
   \   00000F91   000000000000       DC8 0, 0, 0, 0, 0, 0, 0, 0, 0, 0, 0, 0, 0, 0, 0, 0
   \              000000000000
   \              00000000    
   \   00000FA1   000000000000       DC8 0, 0, 0, 0, 0, 0, 0, 0, 0, 0, 0, 0, 0, 0, 0, 0
   \              000000000000
   \              00000000    
   \   00000FB1   000000000000       DC8 0, 0, 0, 0, 0, 0, 0, 0, 0, 0, 0, 0, 0, 0, 0, 0
   \              000000000000
   \              00000000    
   \   00000FC1   000000000000       DC8 0, 0, 0, 0, 0, 0, 0, 0, 0, 0, 0, 0, 0, 0, 0, 0
   \              000000000000
   \              00000000    
   \   00000FD1   000000000000       DC8 0, 0, 0, 0, 0, 0, 0, 0, 0, 0, 0, 0, 0, 0, 0, 0
   \              000000000000
   \              00000000    
   \   00000FE1   000000000000       DC8 0, 0, 0, 0, 0, 0, 0, 0, 0, 0, 0, 0, 0, 0, 0, 0
   \              000000000000
   \              00000000    
   \   00000FF1   000000000000       DC8 0, 0, 0, 0, 0, 0, 0, 0, 0, 0, 0, 0, 0, 0, 0, 0
   \              000000000000
   \              00000000    
   \   00001001   000000000000       DC8 0, 0, 0, 0, 0, 0, 0, 0, 0, 0, 0, 0, 0, 0, 0, 0
   \              000000000000
   \              00000000    
   \   00001011   000000000000       DC8 0, 0, 0, 0, 0, 0, 0, 0, 0, 0, 0, 0, 0, 0, 0, 0
   \              000000000000
   \              00000000    
   \   00001021   000000000000       DC8 0, 0, 0, 0, 0, 0, 0, 0, 0, 0, 0, 0, 0, 0, 0, 0
   \              000000000000
   \              00000000    
   \   00001031   000000000000       DC8 0, 0, 0, 0, 0, 0, 0, 0, 0, 0, 0, 0, 0, 0, 0, 0
   \              000000000000
   \              00000000    
   \   00001041   000000000000       DC8 0, 0, 0, 0, 0, 0, 0, 0, 0, 0, 0, 0, 0, 0, 0, 0
   \              000000000000
   \              00000000    
   \   00001051   000000000000       DC8 0, 0, 0, 0, 0, 0, 0, 0, 0, 0, 0, 0, 0, 0, 0, 0
   \              000000000000
   \              00000000    
   \   00001061   000000000000       DC8 0, 0, 0, 0, 0, 0, 0, 0, 0, 0, 0, 0, 0, 0, 0, 0
   \              000000000000
   \              00000000    
   \   00001071   000000000000       DC8 0, 0, 0, 0, 0, 0, 0, 0, 0, 0, 0, 0, 0, 0, 0, 0
   \              000000000000
   \              00000000    
   \   00001081   000000000000       DC8 0, 0, 0, 0, 0, 0, 0, 0, 0, 0, 0, 0, 0, 0, 0, 0
   \              000000000000
   \              00000000    
   \   00001091   000000000000       DC8 0, 0, 0, 0, 0, 0, 0, 0, 0, 0, 0, 0, 0, 0, 0, 0
   \              000000000000
   \              00000000    
   \   000010A1   000000000000       DC8 0, 0, 0, 0, 0, 0, 0, 0, 0, 0, 0, 0, 0, 0, 0, 0
   \              000000000000
   \              00000000    
   \   000010B1   000000000000       DC8 0, 0, 0, 0, 0, 0, 0, 0, 0, 0, 0, 0, 0, 0, 0, 0
   \              000000000000
   \              00000000    
   \   000010C1   000000000000       DC8 0, 0, 0, 0, 0, 0, 0, 0, 0, 0, 0, 0, 0, 0, 0, 0
   \              000000000000
   \              00000000    
   \   000010D1   000000000000       DC8 0, 0, 0, 0, 0, 0, 0, 0, 0, 0, 0, 0, 0, 0, 0, 0
   \              000000000000
   \              00000000    
   \   000010E1   000000000000       DC8 0, 0, 0, 0, 0, 0, 0, 0, 0, 0, 0, 0, 0, 0, 0, 0
   \              000000000000
   \              00000000    
   \   000010F1   000000000000       DC8 0, 0, 0, 0, 0, 0, 0, 0, 0, 0, 0, 0, 0, 0, 0, 0
   \              000000000000
   \              00000000    
   \   00001101   000000000000       DC8 0, 0, 0, 0, 0, 0, 0, 0, 0, 0, 0, 0, 0, 0, 0, 0
   \              000000000000
   \              00000000    
   \   00001111   000000000000       DC8 0, 0, 0, 0, 0, 0, 0, 0, 0, 0, 0, 0, 0, 0, 0, 0
   \              000000000000
   \              00000000    
   \   00001121   000000000000       DC8 0, 0, 0, 0, 0, 0, 0, 0, 0, 0, 0, 0, 0, 0, 0, 0
   \              000000000000
   \              00000000    
   \   00001131   000000000000       DC8 0, 0, 0, 0, 0, 0, 0, 0, 0, 0, 0, 0, 0, 0, 0, 0
   \              000000000000
   \              00000000    
   \   00001141   000000000000       DC8 0, 0, 0, 0, 0, 0, 0, 0, 0, 0, 0, 0, 0, 0, 0, 0
   \              000000000000
   \              00000000    
   \   00001151   000000000000       DC8 0, 0, 0, 0, 0, 0, 0, 0, 0, 0, 0, 0, 0, 0, 0, 0
   \              000000000000
   \              00000000    
   \   00001161   000000000000       DC8 0, 0, 0, 0, 0, 0, 0, 0, 0, 0, 0, 0, 0, 0, 0, 0
   \              000000000000
   \              00000000    
   \   00001171   000000000000       DC8 0, 0, 0, 0, 0, 0, 0, 0, 0, 0, 0, 0, 0, 0, 0, 0
   \              000000000000
   \              00000000    
   \   00001181   000000000000       DC8 0, 0, 0, 0, 0, 0, 0, 0, 0, 0, 0, 0, 0, 0, 0, 0
   \              000000000000
   \              00000000    
   \   00001191   000000000000       DC8 0, 0, 0, 0, 0, 0, 0, 0, 0, 0, 0, 0, 0, 0, 0, 0
   \              000000000000
   \              00000000    
   \   000011A1   000000000000       DC8 0, 0, 0, 0, 0, 0, 0, 0, 0, 0, 0, 0, 0, 0, 0, 0
   \              000000000000
   \              00000000    
   \   000011B1   000000000000       DC8 0, 0, 0, 0, 0, 0, 0, 0, 0, 0, 0, 0, 0, 0, 0, 0
   \              000000000000
   \              00000000    
   \   000011C1   000000000000       DC8 0, 0, 0, 0, 0, 0, 0, 0, 0, 0, 0, 0, 0, 0, 0, 0
   \              000000000000
   \              00000000    
   \   000011D1   000000000000       DC8 0, 0, 0, 0, 0, 0, 0, 0, 0, 0, 0, 0, 0, 0, 0, 0
   \              000000000000
   \              00000000    
   \   000011E1   000000000000       DC8 0, 0, 0, 0, 0, 0, 0, 0, 0, 0, 0, 0, 0, 0, 0, 0
   \              000000000000
   \              00000000    
   \   000011F1   000000000000       DC8 0, 0, 0, 0, 0, 0, 0, 0, 0, 0, 0, 0, 0, 0, 0, 0
   \              000000000000
   \              00000000    
   \   00001201   000000000000       DC8 0, 0, 0, 0, 0, 0, 0, 0, 0, 0, 0, 0, 0, 0, 0, 0
   \              000000000000
   \              00000000    
   \   00001211   000000000000       DC8 0, 0, 0, 0, 0, 0, 0, 0, 0, 0, 0, 0, 0, 0, 0, 0
   \              000000000000
   \              00000000    
   \   00001221   000000000000       DC8 0, 0, 0, 0, 0, 0, 0, 0, 0, 0, 0, 0, 0, 0, 0, 0
   \              000000000000
   \              00000000    
   \   00001231   000000000000       DC8 0, 0, 0, 0, 0, 0, 0, 0, 0, 0, 0, 0, 0, 0, 0, 0
   \              000000000000
   \              00000000    
   \   00001241   000000000000       DC8 0, 0, 0, 0, 0, 0, 0, 0, 0, 0, 0, 0, 0, 0, 0, 0
   \              000000000000
   \              00000000    
   \   00001251   000000000000       DC8 0, 0, 0, 0, 0, 0, 0, 0, 0, 0, 0, 0, 0, 0, 0, 0
   \              000000000000
   \              00000000    
   \   00001261   000000000000       DC8 0, 0, 0, 0, 0, 0, 0, 0, 0, 0, 0, 0, 0, 0, 0, 0
   \              000000000000
   \              00000000    
   \   00001271   000000000000       DC8 0, 0, 0, 0, 0, 0, 0, 0, 0, 0, 0, 0, 0, 0, 0, 0
   \              000000000000
   \              00000000    
   \   00001281   000000000000       DC8 0, 0, 0, 0, 0, 0, 0, 0, 0, 0, 0, 0, 0, 0, 0, 0
   \              000000000000
   \              00000000    
   \   00001291   000000000000       DC8 0, 0, 0, 0, 0, 0, 0, 0, 0, 0, 0, 0, 0, 0, 0, 0
   \              000000000000
   \              00000000    
   \   000012A1   000000000000       DC8 0, 0, 0, 0, 0, 0, 0, 0, 0, 0, 0, 0, 0, 0, 0, 0
   \              000000000000
   \              00000000    
   \   000012B1   000000000000       DC8 0, 0, 0, 0, 0, 0, 0, 0, 0, 0, 0, 0, 0, 0, 0, 0
   \              000000000000
   \              00000000    
   \   000012C1   000000000000       DC8 0, 0, 0, 0, 0, 0, 0, 0, 0, 0, 0, 0, 0, 0, 0, 0
   \              000000000000
   \              00000000    
   \   000012D1   000000000000       DC8 0, 0, 0, 0, 0, 0, 0, 0, 0, 0, 0, 0, 0, 0, 0, 0
   \              000000000000
   \              00000000    
   \   000012E1   000000000000       DC8 0, 0, 0, 0, 0, 0, 0, 0, 0, 0, 0, 0, 0, 0, 0, 0
   \              000000000000
   \              00000000    
   \   000012F1   000000000000       DC8 0, 0, 0, 0, 0, 0, 0, 0, 0, 0, 0, 0, 0, 0, 0, 0
   \              000000000000
   \              00000000    
   \   00001301   000000000000       DC8 0, 0, 0, 0, 0, 0, 0, 0, 0, 0, 0, 0, 0, 0, 0, 0
   \              000000000000
   \              00000000    
   \   00001311   000000000000       DC8 0, 0, 0, 0, 0, 0, 0, 0, 0, 0, 0, 0, 0, 0, 0, 0
   \              000000000000
   \              00000000    
   \   00001321   000000000000       DC8 0, 0, 0, 0, 0, 0, 0, 0, 0, 0, 0, 0, 0, 0, 0, 0
   \              000000000000
   \              00000000    
   \   00001331   000000000000       DC8 0, 0, 0, 0, 0, 0, 0, 0, 0, 0, 0, 0, 0, 0, 0, 0
   \              000000000000
   \              00000000    
   \   00001341   000000000000       DC8 0, 0, 0, 0, 0, 0, 0, 0, 0, 0, 0, 0, 0, 0, 0, 0
   \              000000000000
   \              00000000    
   \   00001351   000000000000       DC8 0, 0, 0, 0, 0, 0, 0, 0, 0, 0, 0, 0, 0, 0, 0, 0
   \              000000000000
   \              00000000    
   \   00001361   000000000000       DC8 0, 0, 0, 0, 0, 0, 0, 0, 0, 0, 0, 0, 0, 0, 0, 0
   \              000000000000
   \              00000000    
   \   00001371   000000000000       DC8 0, 0, 0, 0, 0, 0, 0, 0, 0, 0, 0, 0, 0, 0, 0, 0
   \              000000000000
   \              00000000    
   \   00001381   000000000000       DC8 0, 0, 0, 0, 0, 0, 0, 0, 0, 0, 0, 0, 0, 0, 0, 0
   \              000000000000
   \              00000000    
   \   00001391   000000000000       DC8 0, 0, 0, 0, 0, 0, 0, 0, 0, 0, 0, 0, 0, 0, 0, 0
   \              000000000000
   \              00000000    
   \   000013A1   000000000000       DC8 0, 0, 0, 0, 0, 0, 0, 0, 0, 0, 0, 0, 0, 0, 0, 0
   \              000000000000
   \              00000000    
   \   000013B1   000000000000       DC8 0, 0, 0, 0, 0, 0, 0, 0, 0, 0, 0, 0, 0, 0, 0, 0
   \              000000000000
   \              00000000    
   \   000013C1   000000000000       DC8 0, 0, 0, 0, 0, 0, 0, 0, 0, 0, 0, 0, 0, 0, 0, 0
   \              000000000000
   \              00000000    
   \   000013D1   000000000000       DC8 0, 0, 0, 0, 0, 0, 0, 0, 0, 0, 0, 0, 0, 0, 0, 0
   \              000000000000
   \              00000000    
   \   000013E1   000000000000       DC8 0, 0, 0, 0, 0, 0, 0, 0, 0, 0, 0, 0, 0, 0, 0, 0
   \              000000000000
   \              00000000    
   \   000013F1   000000000000       DC8 0, 0, 0, 0, 0, 0, 0, 0, 0, 0, 0, 0, 0, 0, 0, 0
   \              000000000000
   \              00000000    
   \   00001401   000000000000       DC8 0, 0, 0, 0, 0, 0, 0, 0, 0, 0, 0, 0, 0, 0, 0, 0
   \              000000000000
   \              00000000    
   \   00001411   000000000000       DC8 0, 0, 0, 0, 0, 0, 0, 0, 0, 0, 0, 0, 0, 0, 0, 0
   \              000000000000
   \              00000000    
   \   00001421   000000000000       DC8 0, 0, 0, 0, 0, 0, 0, 0, 0, 0, 0, 0, 0, 0, 0, 0
   \              000000000000
   \              00000000    
   \   00001431   000000000000       DC8 0, 0, 0, 0, 0, 0, 0, 0, 0, 0, 0, 0, 0, 0, 0, 0
   \              000000000000
   \              00000000    
   \   00001441   000000000000       DC8 0, 0, 0, 0, 0, 0, 0, 0, 0, 0, 0, 0, 0, 0, 0, 0
   \              000000000000
   \              00000000    
   \   00001451   000000000000       DC8 0, 0, 0, 0, 0, 0, 0, 0, 0, 0, 0, 0, 0, 0, 0, 0
   \              000000000000
   \              00000000    
   \   00001461   000000000000       DC8 0, 0, 0, 0, 0, 0, 0, 0, 0, 0, 0, 0, 0, 0, 0, 0
   \              000000000000
   \              00000000    
   \   00001471   000000000000       DC8 0, 0, 0, 0, 0, 0, 0, 0, 0, 0, 0, 0, 0, 0, 0, 0
   \              000000000000
   \              00000000    
   \   00001481   000000000000       DC8 0, 0, 0, 0, 0, 0, 0, 0, 0, 0, 0, 0, 0, 0, 0, 0
   \              000000000000
   \              00000000    
   \   00001491   000000000000       DC8 0, 0, 0, 0, 0, 0, 0, 0, 0, 0, 0, 0, 0, 0, 0, 0
   \              000000000000
   \              00000000    
   \   000014A1   000000000000       DC8 0, 0, 0, 0, 0, 0, 0, 0, 0, 0, 0, 0, 0, 0, 0, 0
   \              000000000000
   \              00000000    
   \   000014B1   000000000000       DC8 0, 0, 0, 0, 0, 0, 0, 0, 0, 0, 0, 0, 0, 0, 0, 0
   \              000000000000
   \              00000000    
   \   000014C1   000000000000       DC8 0, 0, 0, 0, 0, 0, 0, 0, 0, 0, 0, 0, 0, 0, 0, 0
   \              000000000000
   \              00000000    
   \   000014D1   000000000000       DC8 0, 0, 0, 0, 0, 0, 0, 0, 0, 0, 0, 0, 0, 0, 0, 0
   \              000000000000
   \              00000000    
   \   000014E1   000000000000       DC8 0, 0, 0, 0, 0, 0, 0, 0, 0, 0, 0, 0, 0, 0, 0, 0
   \              000000000000
   \              00000000    
   \   000014F1   000000000000       DC8 0, 0, 0, 0, 0, 0, 0, 0, 0, 0, 0, 0, 0, 0, 0, 0
   \              000000000000
   \              00000000    
   \   00001501   000000000000       DC8 0, 0, 0, 0, 0, 0, 0, 0, 0, 0, 0, 0, 0, 0, 0, 0
   \              000000000000
   \              00000000    
   \   00001511   000000000000       DC8 0, 0, 0, 0, 0, 0, 0, 0, 0, 0, 0, 0, 0, 0, 0, 0
   \              000000000000
   \              00000000    
   \   00001521   000000000000       DC8 0, 0, 0, 0, 0, 0, 0, 0, 0, 0, 0, 0, 0, 0, 0, 0
   \              000000000000
   \              00000000    
   \   00001531   000000000000       DC8 0, 0, 0, 0, 0, 0, 0, 0, 0, 0, 0, 0, 0, 0, 0, 0
   \              000000000000
   \              00000000    
   \   00001541   000000000000       DC8 0, 0, 0, 0, 0, 0, 0, 0, 0, 0, 0, 0, 0, 0, 0, 0
   \              000000000000
   \              00000000    
   \   00001551   000000000000       DC8 0, 0, 0, 0, 0, 0, 0, 0, 0, 0, 0, 0, 0, 0, 0, 0
   \              000000000000
   \              00000000    
   \   00001561   000000000000       DC8 0, 0, 0, 0, 0, 0, 0, 0, 0, 0, 0, 0, 0, 0, 0, 0
   \              000000000000
   \              00000000    
   \   00001571   000000000000       DC8 0, 0, 0, 0, 0, 0, 0, 0, 0, 0, 0, 0, 0, 0, 0, 0
   \              000000000000
   \              00000000    
   \   00001581   000000000000       DC8 0, 0, 0, 0, 0, 0, 0, 0, 0, 0, 0, 0, 0, 0, 0, 0
   \              000000000000
   \              00000000    
   \   00001591   000000000000       DC8 0, 0, 0, 0, 0, 0, 0, 0, 0, 0, 0, 0, 0, 0, 0, 0
   \              000000000000
   \              00000000    
   \   000015A1   000000000000       DC8 0, 0, 0, 0, 0, 0, 0, 0, 0, 0, 0, 0, 0, 0, 0, 0
   \              000000000000
   \              00000000    
   \   000015B1   000000000000       DC8 0, 0, 0, 0, 0, 0, 0, 0, 0, 0, 0, 0, 0, 0, 0, 0
   \              000000000000
   \              00000000    
   \   000015C1   000000000000       DC8 0, 0, 0, 0, 0, 0, 0, 0, 0, 0, 0, 0, 0, 0, 0, 0
   \              000000000000
   \              00000000    
   \   000015D1   000000000000       DC8 0, 0, 0, 0, 0, 0, 0, 0, 0, 0, 0, 0, 0, 0, 0, 0
   \              000000000000
   \              00000000    
   \   000015E1   000000000000       DC8 0, 0, 0, 0, 0, 0, 0, 0, 0, 0, 0, 0, 0, 0, 0, 0
   \              000000000000
   \              00000000    
   \   000015F1   000000000000       DC8 0, 0, 0, 0, 0, 0, 0, 0, 0, 0, 0, 0, 0, 0, 0, 0
   \              000000000000
   \              00000000    
   \   00001601   000000000000       DC8 0, 0, 0, 0, 0, 0, 0, 0, 0, 0, 0, 0, 0, 0, 0, 0
   \              000000000000
   \              00000000    
   \   00001611   000000000000       DC8 0, 0, 0, 0, 0, 0, 0, 0, 0, 0, 0, 0, 0, 0, 0, 0
   \              000000000000
   \              00000000    
   \   00001621   000000000000       DC8 0, 0, 0, 0, 0, 0, 0, 0, 0, 0, 0, 0, 0, 0, 0, 0
   \              000000000000
   \              00000000    
   \   00001631   000000000000       DC8 0, 0, 0, 0, 0, 0, 0, 0, 0, 0, 0, 0, 0, 0, 0, 0
   \              000000000000
   \              00000000    
   \   00001641   000000000000       DC8 0, 0, 0, 0, 0, 0, 0, 0, 0, 0, 0, 0, 0, 0, 0, 0
   \              000000000000
   \              00000000    
   \   00001651   000000000000       DC8 0, 0, 0, 0, 0, 0, 0, 0, 0, 0, 0, 0, 0, 0, 0, 0
   \              000000000000
   \              00000000    
   \   00001661   000000000000       DC8 0, 0, 0, 0, 0, 0, 0, 0, 0, 0, 0, 0, 0, 0, 0, 0
   \              000000000000
   \              00000000    
   \   00001671   000000000000       DC8 0, 0, 0, 0, 0, 0, 0, 0, 0, 0, 0, 0, 0, 0, 0, 0
   \              000000000000
   \              00000000    
   \   00001681   000000000000       DC8 0, 0, 0, 0, 0, 0, 0, 0, 0, 0, 0, 0, 0, 0, 0, 0
   \              000000000000
   \              00000000    
   \   00001691   000000000000       DC8 0, 0, 0, 0, 0, 0, 0, 0, 0, 0, 0, 0, 0, 0, 0, 0
   \              000000000000
   \              00000000    
   \   000016A1   000000000000       DC8 0, 0, 0, 0, 0, 0, 0, 0, 0, 0, 0, 0, 0, 0, 0, 0
   \              000000000000
   \              00000000    
   \   000016B1   000000000000       DC8 0, 0, 0, 0, 0, 0, 0, 0, 0, 0, 0, 0, 0, 0, 0, 0
   \              000000000000
   \              00000000    
   \   000016C1   000000000000       DC8 0, 0, 0, 0, 0, 0, 0, 0, 0, 0, 0, 0, 0, 0, 0, 0
   \              000000000000
   \              00000000    
   \   000016D1   000000000000       DC8 0, 0, 0, 0, 0, 0, 0, 0, 0, 0, 0, 0, 0, 0, 0, 0
   \              000000000000
   \              00000000    
   \   000016E1   000000000000       DC8 0, 0, 0, 0, 0, 0, 0, 0, 0, 0, 0, 0, 0, 0, 0, 0
   \              000000000000
   \              00000000    
   \   000016F1   000000000000       DC8 0, 0, 0, 0, 0, 0, 0, 0, 0, 0, 0, 0, 0, 0, 0, 0
   \              000000000000
   \              00000000    
   \   00001701   000000000000       DC8 0, 0, 0, 0, 0, 0, 0, 0, 0, 0, 0, 0, 0, 0, 0, 0
   \              000000000000
   \              00000000    
   \   00001711   000000000000       DC8 0, 0, 0, 0, 0, 0, 0, 0, 0, 0, 0, 0, 0, 0, 0, 0
   \              000000000000
   \              00000000    
   \   00001721   000000000000       DC8 0, 0, 0, 0, 0, 0, 0, 0, 0, 0, 0, 0, 0, 0, 0, 0
   \              000000000000
   \              00000000    
   \   00001731   000000000000       DC8 0, 0, 0, 0, 0, 0, 0, 0, 0, 0, 0, 0, 0, 0, 0, 0
   \              000000000000
   \              00000000    
   \   00001741   000000000000       DC8 0, 0, 0, 0, 0, 0, 0, 0, 0, 0, 0, 0, 0, 0, 0, 0
   \              000000000000
   \              00000000    
   \   00001751   000000000000       DC8 0, 0, 0, 0, 0, 0, 0, 0, 0, 0, 0, 0, 0, 0, 0, 0
   \              000000000000
   \              00000000    
   \   00001761   000000000000       DC8 0, 0, 0, 0, 0, 0, 0, 0, 0, 0, 0, 0, 0, 0, 0, 0
   \              000000000000
   \              00000000    
   \   00001771   000000000000       DC8 0, 0, 0, 0, 0, 0, 0, 0, 0, 0, 0, 0, 0, 0, 0, 0
   \              000000000000
   \              00000000    
   \   00001781   000000000000       DC8 0, 0, 0, 0, 0, 0, 0, 0, 0, 0, 0, 0, 0, 0, 0, 0
   \              000000000000
   \              00000000    
   \   00001791   000000000000       DC8 0, 0, 0, 0, 0, 0, 0, 0, 0, 0, 0, 0, 0, 0, 0, 0
   \              000000000000
   \              00000000    
   \   000017A1   000000000000       DC8 0, 0, 0, 0, 0, 0, 0, 0, 0, 0, 0, 0, 0, 0, 0, 0
   \              000000000000
   \              00000000    
   \   000017B1   000000000000       DC8 0, 0, 0, 0, 0, 0, 0, 0, 0, 0, 0, 0, 0, 0, 0, 0
   \              000000000000
   \              00000000    
   \   000017C1   000000000000       DC8 0, 0, 0, 0, 0, 0, 0, 0, 0, 0, 0, 0, 0, 0, 0, 0
   \              000000000000
   \              00000000    
   \   000017D1   000000000000       DC8 0, 0, 0, 0, 0, 0, 0, 0, 0, 0, 0, 0, 0, 0, 0, 0
   \              000000000000
   \              00000000    
   \   000017E1   000000000000       DC8 0, 0, 0, 0, 0, 0, 0, 0, 0, 0, 0, 0, 0, 0, 0, 0
   \              000000000000
   \              00000000    
   \   000017F1   000000000000       DC8 0, 0, 0, 0, 0, 0, 0, 0, 0, 0, 0, 0, 0, 0, 0, 0
   \              000000000000
   \              00000000    
   \   00001801   000000000000       DC8 0, 0, 0, 0, 0, 0, 0, 0, 0, 0, 0, 0, 0, 0, 0, 0
   \              000000000000
   \              00000000    
   \   00001811   000000000000       DC8 0, 0, 0, 0, 0, 0, 0, 0, 0, 0, 0, 0, 0, 0, 0, 0
   \              000000000000
   \              00000000    
   \   00001821   000000000000       DC8 0, 0, 0, 0, 0, 0, 0, 0, 0, 0, 0, 0, 0, 0, 0, 0
   \              000000000000
   \              00000000    
   \   00001831   000000000000       DC8 0, 0, 0, 0, 0, 0, 0, 0, 0, 0, 0, 0, 0, 0, 0, 0
   \              000000000000
   \              00000000    
   \   00001841   000000000000       DC8 0, 0, 0, 0, 0, 0, 0, 0, 0, 0, 0, 0, 0, 0, 0, 0
   \              000000000000
   \              00000000    
   \   00001851   000000000000       DC8 0, 0, 0, 0, 0, 0, 0, 0, 0, 0, 0, 0, 0, 0, 0, 0
   \              000000000000
   \              00000000    
   \   00001861   000000000000       DC8 0, 0, 0, 0, 0, 0, 0, 0, 0, 0, 0, 0, 0, 0, 0, 0
   \              000000000000
   \              00000000    
   \   00001871   000000000000       DC8 0, 0, 0, 0, 0, 0, 0, 0, 0, 0, 0, 0, 0, 0, 0, 0
   \              000000000000
   \              00000000    
   \   00001881   000000000000       DC8 0, 0, 0, 0, 0, 0, 0, 0, 0, 0, 0, 0, 0, 0, 0, 0
   \              000000000000
   \              00000000    
   \   00001891   000000000000       DC8 0, 0, 0, 0, 0, 0, 0, 0, 0, 0, 0, 0, 0, 0, 0, 0
   \              000000000000
   \              00000000    
   \   000018A1   000000000000       DC8 0, 0, 0, 0, 0, 0, 0, 0, 0, 0, 0, 0, 0, 0, 0, 0
   \              000000000000
   \              00000000    
   \   000018B1   000000000000       DC8 0, 0, 0, 0, 0, 0, 0, 0, 0, 0, 0, 0, 0, 0, 0, 0
   \              000000000000
   \              00000000    
   \   000018C1   000000000000       DC8 0, 0, 0, 0, 0, 0, 0, 0, 0, 0, 0, 0, 0, 0, 0, 0
   \              000000000000
   \              00000000    
   \   000018D1   000000000000       DC8 0, 0, 0, 0, 0, 0, 0, 0, 0, 0, 0, 0, 0, 0, 0, 0
   \              000000000000
   \              00000000    
   \   000018E1   000000000000       DC8 0, 0, 0, 0, 0, 0, 0, 0, 0, 0, 0, 0, 0, 0, 0, 0
   \              000000000000
   \              00000000    
   \   000018F1   000000000000       DC8 0, 0, 0, 0, 0, 0, 0, 0, 0, 0, 0, 0, 0, 0, 0, 0
   \              000000000000
   \              00000000    
   \   00001901   000000000000       DC8 0, 0, 0, 0, 0, 0, 0, 0, 0, 0, 0, 0, 0, 0, 0, 0
   \              000000000000
   \              00000000    
   \   00001911   000000000000       DC8 0, 0, 0, 0, 0, 0, 0, 0, 0, 0, 0, 0, 0, 0, 0, 0
   \              000000000000
   \              00000000    
   \   00001921   000000000000       DC8 0, 0, 0, 0, 0, 0, 0, 0, 0, 0, 0, 0, 0, 0, 0, 0
   \              000000000000
   \              00000000    
   \   00001931   000000000000       DC8 0, 0, 0, 0, 0, 0, 0, 0, 0, 0, 0, 0, 0, 0, 0, 0
   \              000000000000
   \              00000000    
   \   00001941   000000000000       DC8 0, 0, 0, 0, 0, 0, 0, 0, 0, 0, 0, 0, 0, 0, 0, 0
   \              000000000000
   \              00000000    
   \   00001951   000000000000       DC8 0, 0, 0, 0, 0, 0, 0, 0, 0, 0, 0, 0, 0, 0, 0, 0
   \              000000000000
   \              00000000    
   \   00001961   000000000000       DC8 0, 0, 0, 0, 0, 0, 0, 0, 0, 0, 0, 0, 0, 0, 0, 0
   \              000000000000
   \              00000000    
   \   00001971   000000000000       DC8 0, 0, 0, 0, 0, 0, 0, 0, 0, 0, 0, 0, 0, 0, 0, 0
   \              000000000000
   \              00000000    
   \   00001981   000000000000       DC8 0, 0, 0, 0, 0, 0, 0, 0, 0, 0, 0, 0, 0, 0, 0, 0
   \              000000000000
   \              00000000    
   \   00001991   000000000000       DC8 0, 0, 0, 0, 0, 0, 0, 0, 0, 0, 0, 0, 0, 0, 0, 0
   \              000000000000
   \              00000000    
   \   000019A1   000000000000       DC8 0, 0, 0, 0, 0, 0, 0, 0, 0, 0, 0, 0, 0, 0, 0, 0
   \              000000000000
   \              00000000    
   \   000019B1   000000000000       DC8 0, 0, 0, 0, 0, 0, 0, 0, 0, 0, 0, 0, 0, 0, 0, 0
   \              000000000000
   \              00000000    
   \   000019C1   000000000000       DC8 0, 0, 0, 0, 0, 0, 0, 0, 0, 0, 0, 0, 0, 0, 0, 0
   \              000000000000
   \              00000000    
   \   000019D1   000000000000       DC8 0, 0, 0, 0, 0, 0, 0, 0, 0, 0, 0, 0, 0, 0, 0, 0
   \              000000000000
   \              00000000    
   \   000019E1   000000000000       DC8 0, 0, 0, 0, 0, 0, 0, 0, 0, 0, 0, 0, 0, 0, 0, 0
   \              000000000000
   \              00000000    
   \   000019F1   000000000000       DC8 0, 0, 0, 0, 0, 0, 0, 0, 0, 0, 0, 0, 0, 0, 0, 0
   \              000000000000
   \              00000000    
   \   00001A01   000000000000       DC8 0, 0, 0, 0, 0, 0, 0, 0, 0, 0, 0, 0, 0, 0, 0, 0
   \              000000000000
   \              00000000    
   \   00001A11   000000000000       DC8 0, 0, 0, 0, 0, 0, 0, 0, 0, 0, 0, 0, 0, 0, 0, 0
   \              000000000000
   \              00000000    
   \   00001A21   000000000000       DC8 0, 0, 0, 0, 0, 0, 0, 0, 0, 0, 0, 0, 0, 0, 0, 0
   \              000000000000
   \              00000000    
   \   00001A31   000000000000       DC8 0, 0, 0, 0, 0, 0, 0, 0, 0, 0, 0, 0, 0, 0, 0, 0
   \              000000000000
   \              00000000    
   \   00001A41   000000000000       DC8 0, 0, 0, 0, 0, 0, 0, 0, 0, 0, 0, 0, 0, 0, 0, 0
   \              000000000000
   \              00000000    
   \   00001A51   000000000000       DC8 0, 0, 0, 0, 0, 0, 0, 0, 0, 0, 0, 0, 0, 0, 0, 0
   \              000000000000
   \              00000000    
   \   00001A61   000000000000       DC8 0, 0, 0, 0, 0, 0, 0, 0, 0, 0, 0, 0, 0, 0, 0, 0
   \              000000000000
   \              00000000    
   \   00001A71   000000000000       DC8 0, 0, 0, 0, 0, 0, 0, 0, 0, 0, 0, 0, 0, 0, 0, 0
   \              000000000000
   \              00000000    
   \   00001A81   000000000000       DC8 0, 0, 0, 0, 0, 0, 0, 0, 0, 0, 0, 0, 0, 0, 0, 0
   \              000000000000
   \              00000000    
   \   00001A91   000000000000       DC8 0, 0, 0, 0, 0, 0, 0, 0, 0, 0, 0, 0, 0, 0, 0, 0
   \              000000000000
   \              00000000    
   \   00001AA1   000000000000       DC8 0, 0, 0, 0, 0, 0, 0, 0, 0, 0, 0, 0, 0, 0, 0, 0
   \              000000000000
   \              00000000    
   \   00001AB1   000000000000       DC8 0, 0, 0, 0, 0, 0, 0, 0, 0, 0, 0, 0, 0, 0, 0, 0
   \              000000000000
   \              00000000    
   \   00001AC1   000000000000       DC8 0, 0, 0, 0, 0, 0, 0, 0, 0, 0, 0, 0, 0, 0, 0, 0
   \              000000000000
   \              00000000    
   \   00001AD1   000000000000       DC8 0, 0, 0, 0, 0, 0, 0, 0, 0, 0, 0, 0, 0, 0, 0, 0
   \              000000000000
   \              00000000    
   \   00001AE1   000000000000       DC8 0, 0, 0, 0, 0, 0, 0, 0, 0, 0, 0, 0, 0, 0, 0, 0
   \              000000000000
   \              00000000    
   \   00001AF1   000000000000       DC8 0, 0, 0, 0, 0, 0, 0, 0, 0, 0, 0, 0, 0, 0, 0, 0
   \              000000000000
   \              00000000    
   \   00001B01   000000000000       DC8 0, 0, 0, 0, 0, 0, 0, 0, 0, 0, 0, 0, 0, 0, 0, 0
   \              000000000000
   \              00000000    
   \   00001B11   000000000000       DC8 0, 0, 0, 0, 0, 0, 0, 0, 0, 0, 0, 0, 0, 0, 0, 0
   \              000000000000
   \              00000000    
   \   00001B21   000000000000       DC8 0, 0, 0, 0, 0, 0, 0, 0, 0, 0, 0, 0, 0, 0, 0, 0
   \              000000000000
   \              00000000    
   \   00001B31   000000000000       DC8 0, 0, 0, 0, 0, 0, 0, 0, 0, 0, 0, 0, 0, 0, 0, 0
   \              000000000000
   \              00000000    
   \   00001B41   000000000000       DC8 0, 0, 0, 0, 0, 0, 0, 0, 0, 0, 0, 0, 0, 0, 0, 0
   \              000000000000
   \              00000000    
   \   00001B51   000000000000       DC8 0, 0, 0, 0, 0, 0, 0, 0, 0, 0, 0, 0, 0, 0, 0, 0
   \              000000000000
   \              00000000    
   \   00001B61   000000000000       DC8 0, 0, 0, 0, 0, 0, 0, 0, 0, 0, 0, 0, 0, 0, 0, 0
   \              000000000000
   \              00000000    
   \   00001B71   000000000000       DC8 0, 0, 0, 0, 0, 0, 0, 0, 0, 0, 0, 0, 0, 0, 0, 0
   \              000000000000
   \              00000000    
   \   00001B81   000000000000       DC8 0, 0, 0, 0, 0, 0, 0, 0, 0, 0, 0, 0, 0, 0, 0, 0
   \              000000000000
   \              00000000    
   \   00001B91   000000000000       DC8 0, 0, 0, 0, 0, 0, 0, 0, 0, 0, 0, 0, 0, 0, 0, 0
   \              000000000000
   \              00000000    
   \   00001BA1   000000000000       DC8 0, 0, 0, 0, 0, 0, 0, 0, 0, 0, 0, 0, 0, 0, 0, 0
   \              000000000000
   \              00000000    
   \   00001BB1   000000000000       DC8 0, 0, 0, 0, 0, 0, 0, 0, 0, 0, 0, 0, 0, 0, 0, 0
   \              000000000000
   \              00000000    
   \   00001BC1   000000000000       DC8 0, 0, 0, 0, 0, 0, 0, 0, 0, 0, 0, 0, 0, 0, 0, 0
   \              000000000000
   \              00000000    
   \   00001BD1   000000000000       DC8 0, 0, 0, 0, 0, 0, 0, 0, 0, 0, 0, 0, 0, 0, 0, 0
   \              000000000000
   \              00000000    
   \   00001BE1   000000000000       DC8 0, 0, 0, 0, 0, 0, 0, 0, 0, 0, 0, 0, 0, 0, 0, 0
   \              000000000000
   \              00000000    
   \   00001BF1   000000000000       DC8 0, 0, 0, 0, 0, 0, 0, 0, 0, 0, 0, 0, 0, 0, 0, 0
   \              000000000000
   \              00000000    
   \   00001C01   000000000000       DC8 0, 0, 0, 0, 0, 0, 0, 0, 0, 0, 0, 0, 0, 0, 0, 0
   \              000000000000
   \              00000000    
   \   00001C11   000000000000       DC8 0, 0, 0, 0, 0, 0, 0, 0, 0, 0, 0, 0, 0, 0, 0, 0
   \              000000000000
   \              00000000    
   \   00001C21   000000000000       DC8 0, 0, 0, 0, 0, 0, 0, 0, 0, 0, 0, 0, 0, 0, 0, 0
   \              000000000000
   \              00000000    
   \   00001C31   000000000000       DC8 0, 0, 0, 0, 0, 0, 0, 0, 0, 0, 0, 0, 0, 0, 0, 0
   \              000000000000
   \              00000000    
   \   00001C41   000000000000       DC8 0, 0, 0, 0, 0, 0, 0, 0, 0, 0, 0, 0, 0, 0, 0, 0
   \              000000000000
   \              00000000    
   \   00001C51   000000000000       DC8 0, 0, 0, 0, 0, 0, 0, 0, 0, 0, 0, 0, 0, 0, 0, 0
   \              000000000000
   \              00000000    
   \   00001C61   000000000000       DC8 0, 0, 0, 0, 0, 0, 0, 0, 0, 0, 0, 0, 0, 0, 0, 0
   \              000000000000
   \              00000000    
   \   00001C71   000000000000       DC8 0, 0, 0, 0, 0, 0, 0, 0, 0, 0, 0, 0, 0, 0, 0, 0
   \              000000000000
   \              00000000    
   \   00001C81   000000000000       DC8 0, 0, 0, 0, 0, 0, 0, 0, 0, 0, 0, 0, 0, 0, 0, 0
   \              000000000000
   \              00000000    
   \   00001C91   000000000000       DC8 0, 0, 0, 0, 0, 0, 0, 0, 0, 0, 0, 0, 0, 0, 0, 0
   \              000000000000
   \              00000000    
   \   00001CA1   000000000000       DC8 0, 0, 0, 0, 0, 0, 0, 0, 0, 0, 0, 0, 0, 0, 0, 0
   \              000000000000
   \              00000000    
   \   00001CB1   000000000000       DC8 0, 0, 0, 0, 0, 0, 0, 0, 0, 0, 0, 0, 0, 0, 0, 0
   \              000000000000
   \              00000000    
   \   00001CC1   000000000000       DC8 0, 0, 0, 0, 0, 0, 0, 0, 0, 0, 0, 0, 0, 0, 0, 0
   \              000000000000
   \              00000000    
   \   00001CD1   000000000000       DC8 0, 0, 0, 0, 0, 0, 0, 0, 0, 0, 0, 0, 0, 0, 0, 0
   \              000000000000
   \              00000000    
   \   00001CE1   000000000000       DC8 0, 0, 0, 0, 0, 0, 0, 0, 0, 0, 0, 0, 0, 0, 0, 0
   \              000000000000
   \              00000000    
   \   00001CF1   000000000000       DC8 0, 0, 0, 0, 0, 0, 0, 0, 0, 0, 0, 0, 0, 0, 0, 0
   \              000000000000
   \              00000000    
   \   00001D01   000000000000       DC8 0, 0, 0, 0, 0, 0, 0, 0, 0, 0, 0, 0, 0, 0, 0, 0
   \              000000000000
   \              00000000    
   \   00001D11   000000000000       DC8 0, 0, 0, 0, 0, 0, 0, 0, 0, 0, 0, 0, 0, 0, 0, 0
   \              000000000000
   \              00000000    
   \   00001D21   000000000000       DC8 0, 0, 0, 0, 0, 0, 0, 0, 0, 0, 0, 0, 0, 0, 0, 0
   \              000000000000
   \              00000000    
   \   00001D31   000000000000       DC8 0, 0, 0, 0, 0, 0, 0, 0, 0, 0, 0, 0, 0, 0, 0, 0
   \              000000000000
   \              00000000    
   \   00001D41   000000000000       DC8 0, 0, 0, 0, 0, 0, 0, 0, 0, 0, 0, 0, 0, 0, 0, 0
   \              000000000000
   \              00000000    
   \   00001D51   000000000000       DC8 0, 0, 0, 0, 0, 0, 0, 0, 0, 0, 0, 0, 0, 0, 0, 0
   \              000000000000
   \              00000000    
   \   00001D61   000000000000       DC8 0, 0, 0, 0, 0, 0, 0, 0, 0, 0, 0, 0, 0, 0, 0, 0
   \              000000000000
   \              00000000    
   \   00001D71   000000000000       DC8 0, 0, 0, 0, 0, 0, 0, 0, 0, 0, 0, 0, 0, 0, 0, 0
   \              000000000000
   \              00000000    
   \   00001D81   000000000000       DC8 0, 0, 0, 0, 0, 0, 0, 0, 0, 0, 0, 0, 0, 0, 0, 0
   \              000000000000
   \              00000000    
   \   00001D91   000000000000       DC8 0, 0, 0, 0, 0, 0, 0, 0, 0, 0, 0, 0, 0, 0, 0, 0
   \              000000000000
   \              00000000    
   \   00001DA1   000000000000       DC8 0, 0, 0, 0, 0, 0, 0, 0, 0, 0, 0, 0, 0, 0, 0, 0
   \              000000000000
   \              00000000    
   \   00001DB1   000000000000       DC8 0, 0, 0, 0, 0, 0, 0, 0, 0, 0, 0, 0, 0, 0, 0, 0
   \              000000000000
   \              00000000    
   \   00001DC1   000000000000       DC8 0, 0, 0, 0, 0, 0, 0, 0, 0, 0, 0, 0, 0, 0, 0, 0
   \              000000000000
   \              00000000    
   \   00001DD1   000000000000       DC8 0, 0, 0, 0, 0, 0, 0, 0, 0, 0, 0, 0, 0, 0, 0, 0
   \              000000000000
   \              00000000    
   \   00001DE1   000000000000       DC8 0, 0, 0, 0, 0, 0, 0, 0, 0, 0, 0, 0, 0, 0, 0, 0
   \              000000000000
   \              00000000    
   \   00001DF1   000000000000       DC8 0, 0, 0, 0, 0, 0, 0, 0, 0, 0, 0, 0, 0, 0, 0, 0
   \              000000000000
   \              00000000    
   \   00001E01   000000000000       DC8 0, 0, 0, 0, 0, 0, 0, 0, 0, 0, 0, 0, 0, 0, 0, 0
   \              000000000000
   \              00000000    
   \   00001E11   000000000000       DC8 0, 0, 0, 0, 0, 0, 0, 0, 0, 0, 0, 0, 0, 0, 0, 0
   \              000000000000
   \              00000000    
   \   00001E21   000000000000       DC8 0, 0, 0, 0, 0, 0, 0, 0, 0, 0, 0, 0, 0, 0, 0, 0
   \              000000000000
   \              00000000    
   \   00001E31   000000000000       DC8 0, 0, 0, 0, 0, 0, 0, 0, 0, 0, 0, 0, 0, 0, 0, 0
   \              000000000000
   \              00000000    
   \   00001E41   000000000000       DC8 0, 0, 0, 0, 0, 0, 0, 0, 0, 0, 0, 0, 0, 0, 0, 0
   \              000000000000
   \              00000000    
   \   00001E51   000000000000       DC8 0, 0, 0, 0, 0, 0, 0, 0, 0, 0, 0, 0, 0, 0, 0, 0
   \              000000000000
   \              00000000    
   \   00001E61   000000000000       DC8 0, 0, 0, 0, 0, 0, 0, 0, 0, 0, 0, 0, 0, 0, 0, 0
   \              000000000000
   \              00000000    
   \   00001E71   000000000000       DC8 0, 0, 0, 0, 0, 0, 0, 0, 0, 0, 0, 0, 0, 0, 0, 0
   \              000000000000
   \              00000000    
   \   00001E81   000000000000       DC8 0, 0, 0, 0, 0, 0, 0, 0, 0, 0, 0, 0, 0, 0, 0, 0
   \              000000000000
   \              00000000    
   \   00001E91   000000000000       DC8 0, 0, 0, 0, 0, 0, 0, 0, 0, 0, 0, 0, 0, 0, 0, 0
   \              000000000000
   \              00000000    
   \   00001EA1   000000000000       DC8 0, 0, 0, 0, 0, 0, 0, 0, 0, 0, 0, 0, 0, 0, 0, 0
   \              000000000000
   \              00000000    
   \   00001EB1   000000000000       DC8 0, 0, 0, 0, 0, 0, 0, 0, 0, 0, 0, 0, 0, 0, 0, 0
   \              000000000000
   \              00000000    
   \   00001EC1   000000000000       DC8 0, 0, 0, 0, 0, 0, 0, 0, 0, 0, 0, 0, 0, 0, 0, 0
   \              000000000000
   \              00000000    
   \   00001ED1   000000000000       DC8 0, 0, 0, 0, 0, 0, 0, 0, 0, 0, 0, 0, 0, 0, 0, 0
   \              000000000000
   \              00000000    
   \   00001EE1   000000000000       DC8 0, 0, 0, 0, 0, 0, 0, 0, 0, 0, 0, 0, 0, 0, 0, 0
   \              000000000000
   \              00000000    
   \   00001EF1   000000000000       DC8 0, 0, 0, 0, 0, 0, 0, 0, 0, 0, 0, 0, 0, 0, 0, 0
   \              000000000000
   \              00000000    
   \   00001F01   000000000000       DC8 0, 0, 0, 0, 0, 0, 0, 0, 0, 0, 0, 0, 0, 0, 0, 0
   \              000000000000
   \              00000000    
   \   00001F11   000000000000       DC8 0, 0, 0, 0, 0, 0, 0, 0, 0, 0, 0, 0, 0, 0, 0, 0
   \              000000000000
   \              00000000    
   \   00001F21   000000000000       DC8 0, 0, 0, 0, 0, 0, 0, 0, 0, 0, 0, 0, 0, 0, 0, 0
   \              000000000000
   \              00000000    
   \   00001F31   000000000000       DC8 0, 0, 0, 0, 0, 0, 0, 0, 0, 0, 0, 0, 0, 0, 0, 0
   \              000000000000
   \              00000000    
   \   00001F41   000000000000       DC8 0, 0, 0, 0, 0, 0, 0, 0, 0, 0, 0, 0, 0, 0, 0, 0
   \              000000000000
   \              00000000    
   \   00001F51   000000000000       DC8 0, 0, 0, 0, 0, 0, 0, 0, 0, 0, 0, 0, 0, 0, 0, 0
   \              000000000000
   \              00000000    
   \   00001F61   000000000000       DC8 0, 0, 0, 0, 0, 0, 0, 0, 0, 0, 0, 0, 0, 0, 0, 0
   \              000000000000
   \              00000000    
   \   00001F71   000000000000       DC8 0, 0, 0, 0, 0, 0, 0, 0, 0, 0, 0, 0, 0, 0, 0, 0
   \              000000000000
   \              00000000    
   \   00001F81   000000000000       DC8 0, 0, 0, 0, 0, 0, 0, 0, 0, 0, 0, 0, 0, 0, 0, 0
   \              000000000000
   \              00000000    
   \   00001F91   000000000000       DC8 0, 0, 0, 0, 0, 0, 0, 0, 0, 0, 0, 0, 0, 0, 0, 0
   \              000000000000
   \              00000000    
   \   00001FA1   000000000000       DC8 0, 0, 0, 0, 0, 0, 0, 0, 0, 0, 0, 0, 0, 0, 0, 0
   \              000000000000
   \              00000000    
   \   00001FB1   000000000000       DC8 0, 0, 0, 0, 0, 0, 0, 0, 0, 0, 0, 0, 0, 0, 0, 0
   \              000000000000
   \              00000000    
   \   00001FC1   000000000000       DC8 0, 0, 0, 0, 0, 0, 0, 0, 0, 0, 0, 0, 0, 0, 0, 0
   \              000000000000
   \              00000000    
   \   00001FD1   000000000000       DC8 0, 0, 0, 0, 0, 0, 0, 0, 0, 0, 0, 0, 0, 0, 0, 0
   \              000000000000
   \              00000000    
   \   00001FE1   000000000000       DC8 0, 0, 0, 0, 0, 0, 0, 0, 0, 0, 0, 0, 0, 0, 0, 0
   \              000000000000
   \              00000000    
   \   00001FF1   000000000000       DC8 0, 0, 0, 0, 0, 0, 0, 0, 0, 0, 0, 0, 0, 0, 0, 0
   \              000000000000
   \              00000000    
   \   00002001   000000000000       DC8 0, 0, 0, 0, 0, 0, 0, 0, 0, 0, 0, 0, 0, 0, 0, 0
   \              000000000000
   \              00000000    
   \   00002011   000000000000       DC8 0, 0, 0, 0, 0, 0, 0, 0, 0, 0, 0, 0, 0, 0, 0, 0
   \              000000000000
   \              00000000    
   \   00002021   000000000000       DC8 0, 0, 0, 0, 0, 0, 0, 0, 0, 0, 0, 0, 0, 0, 0, 0
   \              000000000000
   \              00000000    
   \   00002031   000000000000       DC8 0, 0, 0, 0, 0, 0, 0, 0, 0, 0, 0, 0, 0, 0, 0, 0
   \              000000000000
   \              00000000    
   \   00002041   000000000000       DC8 0, 0, 0, 0, 0, 0, 0, 0, 0, 0, 0, 0, 0, 0, 0, 0
   \              000000000000
   \              00000000    
   \   00002051   000000000000       DC8 0, 0, 0, 0, 0, 0, 0, 0, 0, 0, 0, 0, 0, 0, 0, 0
   \              000000000000
   \              00000000    
   \   00002061   000000000000       DC8 0, 0, 0, 0, 0, 0, 0, 0, 0, 0, 0, 0, 0, 0, 0, 0
   \              000000000000
   \              00000000    
   \   00002071   000000000000       DC8 0, 0, 0, 0, 0, 0, 0, 0, 0, 0, 0, 0, 0, 0, 0, 0
   \              000000000000
   \              00000000    
   \   00002081   000000000000       DC8 0, 0, 0, 0, 0, 0, 0, 0, 0, 0, 0, 0, 0, 0, 0, 0
   \              000000000000
   \              00000000    
   \   00002091   000000000000       DC8 0, 0, 0, 0, 0, 0, 0, 0, 0, 0, 0, 0, 0, 0, 0, 0
   \              000000000000
   \              00000000    
   \   000020A1   000000000000       DC8 0, 0, 0, 0, 0, 0, 0, 0, 0, 0, 0, 0, 0, 0, 0, 0
   \              000000000000
   \              00000000    
   \   000020B1   000000000000       DC8 0, 0, 0, 0, 0, 0, 0, 0, 0, 0, 0, 0, 0, 0, 0, 0
   \              000000000000
   \              00000000    
   \   000020C1   000000000000       DC8 0, 0, 0, 0, 0, 0, 0, 0, 0, 0, 0, 0, 0, 0, 0, 0
   \              000000000000
   \              00000000    
   \   000020D1   000000000000       DC8 0, 0, 0, 0, 0, 0, 0, 0, 0, 0, 0, 0, 0, 0, 0, 0
   \              000000000000
   \              00000000    
   \   000020E1   000000000000       DC8 0, 0, 0, 0, 0, 0, 0, 0, 0, 0, 0, 0, 0, 0, 0, 0
   \              000000000000
   \              00000000    
   \   000020F1   000000000000       DC8 0, 0, 0, 0, 0, 0, 0, 0, 0, 0, 0, 0, 0, 0, 0, 0
   \              000000000000
   \              00000000    
   \   00002101   000000000000       DC8 0, 0, 0, 0, 0, 0, 0, 0, 0, 0, 0, 0, 0, 0, 0, 0
   \              000000000000
   \              00000000    
   \   00002111   000000000000       DC8 0, 0, 0, 0, 0, 0, 0, 0, 0, 0, 0, 0, 0, 0, 0, 0
   \              000000000000
   \              00000000    
   \   00002121   000000000000       DC8 0, 0, 0, 0, 0, 0, 0, 0, 0, 0, 0, 0, 0, 0, 0, 0
   \              000000000000
   \              00000000    
   \   00002131   000000000000       DC8 0, 0, 0, 0, 0, 0, 0, 0, 0, 0, 0, 0, 0, 0, 0, 0
   \              000000000000
   \              00000000    
   \   00002141   000000000000       DC8 0, 0, 0, 0, 0, 0, 0, 0, 0, 0, 0, 0, 0, 0, 0, 0
   \              000000000000
   \              00000000    
   \   00002151   000000000000       DC8 0, 0, 0, 0, 0, 0, 0, 0, 0, 0, 0, 0, 0, 0, 0, 0
   \              000000000000
   \              00000000    
   \   00002161   000000000000       DC8 0, 0, 0, 0, 0, 0, 0, 0, 0, 0, 0, 0, 0, 0, 0, 0
   \              000000000000
   \              00000000    
   \   00002171   000000000000       DC8 0, 0, 0, 0, 0, 0, 0, 0, 0, 0, 0, 0, 0, 0, 0, 0
   \              000000000000
   \              00000000    
   \   00002181   000000000000       DC8 0, 0, 0, 0, 0, 0, 0, 0, 0, 0, 0, 0, 0, 0, 0, 0
   \              000000000000
   \              00000000    
   \   00002191   000000000000       DC8 0, 0, 0, 0, 0, 0, 0, 0, 0, 0, 0, 0, 0, 0, 0, 0
   \              000000000000
   \              00000000    
   \   000021A1   000000000000       DC8 0, 0, 0, 0, 0, 0, 0, 0, 0, 0, 0, 0, 0, 0, 0, 0
   \              000000000000
   \              00000000    
   \   000021B1   000000000000       DC8 0, 0, 0, 0, 0, 0, 0, 0, 0, 0, 0, 0, 0, 0, 0, 0
   \              000000000000
   \              00000000    
   \   000021C1   000000000000       DC8 0, 0, 0, 0, 0, 0, 0, 0, 0, 0, 0, 0, 0, 0, 0, 0
   \              000000000000
   \              00000000    
   \   000021D1   000000000000       DC8 0, 0, 0, 0, 0, 0, 0, 0, 0, 0, 0, 0, 0, 0, 0, 0
   \              000000000000
   \              00000000    
   \   000021E1   000000000000       DC8 0, 0, 0, 0, 0, 0, 0, 0, 0, 0, 0, 0, 0, 0, 0, 0
   \              000000000000
   \              00000000    
   \   000021F1   000000000000       DC8 0, 0, 0, 0, 0, 0, 0, 0, 0, 0, 0, 0, 0, 0, 0, 0
   \              000000000000
   \              00000000    
   \   00002201   000000000000       DC8 0, 0, 0, 0, 0, 0, 0, 0, 0, 0, 0, 0, 0, 0, 0, 0
   \              000000000000
   \              00000000    
   \   00002211   000000000000       DC8 0, 0, 0, 0, 0, 0, 0, 0, 0, 0, 0, 0, 0, 0, 0, 0
   \              000000000000
   \              00000000    
   \   00002221   000000000000       DC8 0, 0, 0, 0, 0, 0, 0, 0, 0, 0, 0, 0, 0, 0, 0, 0
   \              000000000000
   \              00000000    
   \   00002231   000000000000       DC8 0, 0, 0, 0, 0, 0, 0, 0, 0, 0, 0, 0, 0, 0, 0, 0
   \              000000000000
   \              00000000    
   \   00002241   000000000000       DC8 0, 0, 0, 0, 0, 0, 0, 0, 0, 0, 0, 0, 0, 0, 0, 0
   \              000000000000
   \              00000000    
   \   00002251   000000000000       DC8 0, 0, 0, 0, 0, 0, 0, 0, 0, 0, 0, 0, 0, 0, 0, 0
   \              000000000000
   \              00000000    
   \   00002261   000000000000       DC8 0, 0, 0, 0, 0, 0, 0, 0, 0, 0, 0, 0, 0, 0, 0, 0
   \              000000000000
   \              00000000    
   \   00002271   000000000000       DC8 0, 0, 0, 0, 0, 0, 0, 0, 0, 0, 0, 0, 0, 0, 0, 0
   \              000000000000
   \              00000000    
   \   00002281   000000000000       DC8 0, 0, 0, 0, 0, 0, 0, 0, 0, 0, 0, 0, 0, 0, 0, 0
   \              000000000000
   \              00000000    
   \   00002291   000000000000       DC8 0, 0, 0, 0, 0, 0, 0, 0, 0, 0, 0, 0, 0, 0, 0, 0
   \              000000000000
   \              00000000    
   \   000022A1   000000000000       DC8 0, 0, 0, 0, 0, 0, 0, 0, 0, 0, 0, 0, 0, 0, 0, 0
   \              000000000000
   \              00000000    
   \   000022B1   000000000000       DC8 0, 0, 0, 0, 0, 0, 0, 0, 0, 0, 0, 0, 0, 0, 0, 0
   \              000000000000
   \              00000000    
   \   000022C1   000000000000       DC8 0, 0, 0, 0, 0, 0, 0, 0, 0, 0, 0, 0, 0, 0, 0, 0
   \              000000000000
   \              00000000    
   \   000022D1   000000000000       DC8 0, 0, 0, 0, 0, 0, 0, 0, 0, 0, 0, 0, 0, 0, 0, 0
   \              000000000000
   \              00000000    
   \   000022E1   000000000000       DC8 0, 0, 0, 0, 0, 0, 0, 0, 0, 0, 0, 0, 0, 0, 0, 0
   \              000000000000
   \              00000000    
   \   000022F1   000000000000       DC8 0, 0, 0, 0, 0, 0, 0, 0, 0, 0, 0, 0, 0, 0, 0, 0
   \              000000000000
   \              00000000    
   \   00002301   000000000000       DC8 0, 0, 0, 0, 0, 0, 0, 0, 0, 0, 0, 0, 0, 0, 0, 0
   \              000000000000
   \              00000000    
   \   00002311   000000000000       DC8 0, 0, 0, 0, 0, 0, 0, 0, 0, 0, 0, 0, 0, 0, 0, 0
   \              000000000000
   \              00000000    
   \   00002321   000000000000       DC8 0, 0, 0, 0, 0, 0, 0, 0, 0, 0, 0, 0, 0, 0, 0, 0
   \              000000000000
   \              00000000    
   \   00002331   000000000000       DC8 0, 0, 0, 0, 0, 0, 0, 0, 0, 0, 0, 0, 0, 0, 0, 0
   \              000000000000
   \              00000000    
   \   00002341   000000000000       DC8 0, 0, 0, 0, 0, 0, 0, 0, 0, 0, 0, 0, 0, 0, 0, 0
   \              000000000000
   \              00000000    
   \   00002351   000000000000       DC8 0, 0, 0, 0, 0, 0, 0, 0, 0, 0, 0, 0, 0, 0, 0, 0
   \              000000000000
   \              00000000    
   \   00002361   000000000000       DC8 0, 0, 0, 0, 0, 0, 0, 0, 0, 0, 0, 0, 0, 0, 0, 0
   \              000000000000
   \              00000000    
   \   00002371   000000000000       DC8 0, 0, 0, 0, 0, 0, 0, 0, 0, 0, 0, 0, 0, 0, 0, 0
   \              000000000000
   \              00000000    
   \   00002381   000000000000       DC8 0, 0, 0, 0, 0, 0, 0, 0, 0, 0, 0, 0, 0, 0, 0, 0
   \              000000000000
   \              00000000    
   \   00002391   000000000000       DC8 0, 0, 0, 0, 0, 0, 0, 0, 0, 0, 0, 0, 0, 0, 0, 0
   \              000000000000
   \              00000000    
   \   000023A1   000000000000       DC8 0, 0, 0, 0, 0, 0, 0, 0, 0, 0, 0, 0, 0, 0, 0, 0
   \              000000000000
   \              00000000    
   \   000023B1   000000000000       DC8 0, 0, 0, 0, 0, 0, 0, 0, 0, 0, 0, 0, 0, 0, 0, 0
   \              000000000000
   \              00000000    
   \   000023C1   000000000000       DC8 0, 0, 0, 0, 0, 0, 0, 0, 0, 0, 0, 0, 0, 0, 0, 0
   \              000000000000
   \              00000000    
   \   000023D1   000000000000       DC8 0, 0, 0, 0, 0, 0, 0, 0, 0, 0, 0, 0, 0, 0, 0, 0
   \              000000000000
   \              00000000    
   \   000023E1   000000000000       DC8 0, 0, 0, 0, 0, 0, 0, 0, 0, 0, 0, 0, 0, 0, 0, 0
   \              000000000000
   \              00000000    
   \   000023F1   000000000000       DC8 0, 0, 0, 0, 0, 0, 0, 0, 0, 0, 0, 0, 0, 0, 0, 0
   \              000000000000
   \              00000000    
   \   00002401   000000000000       DC8 0, 0, 0, 0, 0, 0, 0, 0, 0, 0, 0, 0, 0, 0, 0, 0
   \              000000000000
   \              00000000    
   \   00002411   000000000000       DC8 0, 0, 0, 0, 0, 0, 0, 0, 0, 0, 0, 0, 0, 0, 0, 0
   \              000000000000
   \              00000000    
   \   00002421   000000000000       DC8 0, 0, 0, 0, 0, 0, 0, 0, 0, 0, 0, 0, 0, 0, 0, 0
   \              000000000000
   \              00000000    
   \   00002431   000000000000       DC8 0, 0, 0, 0, 0, 0, 0, 0, 0, 0, 0, 0, 0, 0, 0, 0
   \              000000000000
   \              00000000    
   \   00002441   000000000000       DC8 0, 0, 0, 0, 0, 0, 0, 0, 0, 0, 0, 0, 0, 0, 0, 0
   \              000000000000
   \              00000000    
   \   00002451   000000000000       DC8 0, 0, 0, 0, 0, 0, 0, 0, 0, 0, 0, 0, 0, 0, 0, 0
   \              000000000000
   \              00000000    
   \   00002461   000000000000       DC8 0, 0, 0, 0, 0, 0, 0, 0, 0, 0, 0, 0, 0, 0, 0, 0
   \              000000000000
   \              00000000    
   \   00002471   000000000000       DC8 0, 0, 0, 0, 0, 0, 0, 0, 0, 0, 0, 0, 0, 0, 0, 0
   \              000000000000
   \              00000000    
   \   00002481   000000000000       DC8 0, 0, 0, 0, 0, 0, 0, 0, 0, 0, 0, 0, 0, 0, 0, 0
   \              000000000000
   \              00000000    
   \   00002491   000000000000       DC8 0, 0, 0, 0, 0, 0, 0, 0, 0, 0, 0, 0, 0, 0, 0, 0
   \              000000000000
   \              00000000    
   \   000024A1   000000000000       DC8 0, 0, 0, 0, 0, 0, 0, 0, 0, 0, 0, 0, 0, 0, 0, 0
   \              000000000000
   \              00000000    
   \   000024B1   000000000000       DC8 0, 0, 0, 0, 0, 0, 0, 0, 0, 0, 0, 0, 0, 0, 0, 0
   \              000000000000
   \              00000000    
   \   000024C1   000000000000       DC8 0, 0, 0, 0, 0, 0, 0, 0, 0, 0, 0, 0, 0, 0, 0, 0
   \              000000000000
   \              00000000    
   \   000024D1   000000000000       DC8 0, 0, 0, 0, 0, 0, 0, 0, 0, 0, 0, 0, 0, 0, 0, 0
   \              000000000000
   \              00000000    
   \   000024E1   000000000000       DC8 0, 0, 0, 0, 0, 0, 0, 0, 0, 0, 0, 0, 0, 0, 0, 0
   \              000000000000
   \              00000000    
   \   000024F1   000000000000       DC8 0, 0, 0, 0, 0, 0, 0, 0, 0, 0, 0, 0, 0, 0, 0, 0
   \              000000000000
   \              00000000    
   \   00002501   000000000000       DC8 0, 0, 0, 0, 0, 0, 0, 0, 0, 0, 0, 0, 0, 0, 0, 0
   \              000000000000
   \              00000000    
   \   00002511   000000000000       DC8 0, 0, 0, 0, 0, 0, 0, 0, 0, 0, 0, 0, 0, 0, 0, 0
   \              000000000000
   \              00000000    
   \   00002521   000000000000       DC8 0, 0, 0, 0, 0, 0, 0, 0, 0, 0, 0, 0, 0, 0, 0, 0
   \              000000000000
   \              00000000    
   \   00002531   000000000000       DC8 0, 0, 0, 0, 0, 0, 0, 0, 0, 0, 0, 0, 0, 0, 0, 0
   \              000000000000
   \              00000000    
   \   00002541   000000000000       DC8 0, 0, 0, 0, 0, 0, 0, 0, 0, 0, 0, 0, 0, 0, 0, 0
   \              000000000000
   \              00000000    
   \   00002551   000000000000       DC8 0, 0, 0, 0, 0, 0, 0, 0, 0, 0, 0, 0, 0, 0, 0, 0
   \              000000000000
   \              00000000    
   \   00002561   000000000000       DC8 0, 0, 0, 0, 0, 0, 0, 0, 0, 0, 0, 0, 0, 0, 0, 0
   \              000000000000
   \              00000000    
   \   00002571   000000000000       DC8 0, 0, 0, 0, 0, 0, 0, 0, 0, 0, 0, 0, 0, 0, 0, 0
   \              000000000000
   \              00000000    
   \   00002581   000000000000       DC8 0, 0, 0, 0, 0, 0, 0, 0, 0, 0, 0, 0, 0, 0, 0, 0
   \              000000000000
   \              00000000    
   \   00002591   000000000000       DC8 0, 0, 0, 0, 0, 0, 0, 0, 0, 0, 0, 0, 0, 0, 0, 0
   \              000000000000
   \              00000000    
   \   000025A1   000000000000       DC8 0, 0, 0, 0, 0, 0, 0, 0, 0, 0, 0, 0, 0, 0, 0, 0
   \              000000000000
   \              00000000    
   \   000025B1   000000000000       DC8 0, 0, 0, 0, 0, 0, 0, 0, 0, 0, 0, 0, 0, 0, 0, 0
   \              000000000000
   \              00000000    
   \   000025C1   000000000000       DC8 0, 0, 0, 0, 0, 0, 0, 0, 0, 0, 0, 0, 0, 0, 0, 0
   \              000000000000
   \              00000000    
   \   000025D1   000000000000       DC8 0, 0, 0, 0, 0, 0, 0, 0, 0, 0, 0, 0, 0, 0, 0, 0
   \              000000000000
   \              00000000    
   \   000025E1   000000000000       DC8 0, 0, 0, 0, 0, 0, 0, 0, 0, 0, 0, 0, 0, 0, 0, 0
   \              000000000000
   \              00000000    
   \   000025F1   000000000000       DC8 0, 0, 0, 0, 0, 0, 0, 0, 0, 0, 0, 0, 0, 0, 0, 0
   \              000000000000
   \              00000000    
   \   00002601   000000000000       DC8 0, 0, 0, 0, 0, 0, 0, 0, 0, 0, 0, 0, 0, 0, 0, 0
   \              000000000000
   \              00000000    
   \   00002611   000000000000       DC8 0, 0, 0, 0, 0, 0, 0, 0, 0, 0, 0, 0, 0, 0, 0, 0
   \              000000000000
   \              00000000    
   \   00002621   000000000000       DC8 0, 0, 0, 0, 0, 0, 0, 0, 0, 0, 0, 0, 0, 0, 0, 0
   \              000000000000
   \              00000000    
   \   00002631   000000000000       DC8 0, 0, 0, 0, 0, 0, 0, 0, 0, 0, 0, 0, 0, 0, 0, 0
   \              000000000000
   \              00000000    
   \   00002641   000000000000       DC8 0, 0, 0, 0, 0, 0, 0, 0, 0, 0, 0, 0, 0, 0, 0, 0
   \              000000000000
   \              00000000    
   \   00002651   000000000000       DC8 0, 0, 0, 0, 0, 0, 0, 0, 0, 0, 0, 0, 0, 0, 0, 0
   \              000000000000
   \              00000000    
   \   00002661   000000000000       DC8 0, 0, 0, 0, 0, 0, 0, 0, 0, 0, 0, 0, 0, 0, 0, 0
   \              000000000000
   \              00000000    
   \   00002671   000000000000       DC8 0, 0, 0, 0, 0, 0, 0, 0, 0, 0, 0, 0, 0, 0, 0, 0
   \              000000000000
   \              00000000    
   \   00002681   000000000000       DC8 0, 0, 0, 0, 0, 0, 0, 0, 0, 0, 0, 0, 0, 0, 0, 0
   \              000000000000
   \              00000000    
   \   00002691   000000000000       DC8 0, 0, 0, 0, 0, 0, 0, 0, 0, 0, 0, 0, 0, 0, 0, 0
   \              000000000000
   \              00000000    
   \   000026A1   000000000000       DC8 0, 0, 0, 0, 0, 0, 0, 0, 0, 0, 0, 0, 0, 0, 0, 0
   \              000000000000
   \              00000000    
   \   000026B1   000000000000       DC8 0, 0, 0, 0, 0, 0, 0, 0, 0, 0, 0, 0, 0, 0, 0, 0
   \              000000000000
   \              00000000    
   \   000026C1   000000000000       DC8 0, 0, 0, 0, 0, 0, 0, 0, 0, 0, 0, 0, 0, 0, 0, 0
   \              000000000000
   \              00000000    
   \   000026D1   000000000000       DC8 0, 0, 0, 0, 0, 0, 0, 0, 0, 0, 0, 0, 0, 0, 0, 0
   \              000000000000
   \              00000000    
   \   000026E1   000000000000       DC8 0, 0, 0, 0, 0, 0, 0, 0, 0, 0, 0, 0, 0, 0, 0, 0
   \              000000000000
   \              00000000    
   \   000026F1   000000000000       DC8 0, 0, 0, 0, 0, 0, 0, 0, 0, 0, 0, 0, 0, 0, 0, 0
   \              000000000000
   \              00000000    
   \   00002701   000000000000       DC8 0, 0, 0, 0, 0, 0, 0, 0, 0, 0, 0, 0, 0, 0, 0, 0
   \              000000000000
   \              00000000    
   \   00002711   000000000000       DC8 0, 0, 0, 0, 0, 0, 0, 0, 0, 0, 0, 0, 0, 0, 0, 0
   \              000000000000
   \              00000000    
   \   00002721   000000000000       DC8 0, 0, 0, 0, 0, 0, 0, 0, 0, 0, 0, 0, 0, 0, 0, 0
   \              000000000000
   \              00000000    
   \   00002731   000000000000       DC8 0, 0, 0, 0, 0, 0, 0, 0, 0, 0, 0, 0, 0, 0, 0, 0
   \              000000000000
   \              00000000    
   \   00002741   000000000000       DC8 0, 0, 0, 0, 0, 0, 0, 0, 0, 0, 0, 0, 0, 0, 0, 0
   \              000000000000
   \              00000000    
   \   00002751   000000000000       DC8 0, 0, 0, 0, 0, 0, 0, 0, 0, 0, 0, 0, 0, 0, 0, 0
   \              000000000000
   \              00000000    
   \   00002761   000000000000       DC8 0, 0, 0, 0, 0, 0, 0, 0, 0, 0, 0, 0, 0, 0, 0, 0
   \              000000000000
   \              00000000    
   \   00002771   000000000000       DC8 0, 0, 0, 0, 0, 0, 0, 0, 0, 0, 0, 0, 0, 0, 0, 0
   \              000000000000
   \              00000000    
   \   00002781   000000000000       DC8 0, 0, 0, 0, 0, 0, 0, 0, 0, 0, 0, 0, 0, 0, 0, 0
   \              000000000000
   \              00000000    
   \   00002791   000000000000       DC8 0, 0, 0, 0, 0, 0, 0, 0, 0, 0, 0, 0, 0, 0, 0, 0
   \              000000000000
   \              00000000    
   \   000027A1   000000000000       DC8 0, 0, 0, 0, 0, 0, 0, 0, 0, 0, 0, 0, 0, 0, 0, 0
   \              000000000000
   \              00000000    
   \   000027B1   000000000000       DC8 0, 0, 0, 0, 0, 0, 0, 0, 0, 0, 0, 0, 0, 0, 0, 0
   \              000000000000
   \              00000000    
   \   000027C1   000000000000       DC8 0, 0, 0, 0, 0, 0, 0, 0, 0, 0, 0, 0, 0, 0, 0, 0
   \              000000000000
   \              00000000    
   \   000027D1   000000000000       DC8 0, 0, 0, 0, 0, 0, 0, 0, 0, 0, 0, 0, 0, 0, 0, 0
   \              000000000000
   \              00000000    
   \   000027E1   000000000000       DC8 0, 0, 0, 0, 0, 0, 0, 0, 0, 0, 0, 0, 0, 0, 0, 0
   \              000000000000
   \              00000000    
   \   000027F1   000000000000       DC8 0, 0, 0, 0, 0, 0, 0, 0, 0, 0, 0, 0, 0, 0, 0, 0
   \              000000000000
   \              00000000    
   \   00002801   000000000000       DC8 0, 0, 0, 0, 0, 0, 0, 0, 0, 0, 0, 0, 0, 0, 0, 0
   \              000000000000
   \              00000000    
   \   00002811   000000000000       DC8 0, 0, 0, 0, 0, 0, 0, 0, 0, 0, 0, 0, 0, 0, 0, 0
   \              000000000000
   \              00000000    
   \   00002821   000000000000       DC8 0, 0, 0, 0, 0, 0, 0, 0, 0, 0, 0, 0, 0, 0, 0, 0
   \              000000000000
   \              00000000    
   \   00002831   000000000000       DC8 0, 0, 0, 0, 0, 0, 0, 0, 0, 0, 0, 0, 0, 0, 0, 0
   \              000000000000
   \              00000000    
   \   00002841   000000000000       DC8 0, 0, 0, 0, 0, 0, 0, 0, 0, 0, 0, 0, 0, 0, 0, 0
   \              000000000000
   \              00000000    
   \   00002851   000000000000       DC8 0, 0, 0, 0, 0, 0, 0, 0, 0, 0, 0, 0, 0, 0, 0, 0
   \              000000000000
   \              00000000    
   \   00002861   000000000000       DC8 0, 0, 0, 0, 0, 0, 0, 0, 0, 0, 0, 0, 0, 0, 0, 0
   \              000000000000
   \              00000000    
   \   00002871   000000000000       DC8 0, 0, 0, 0, 0, 0, 0, 0, 0, 0, 0, 0, 0, 0, 0, 0
   \              000000000000
   \              00000000    
   \   00002881   000000000000       DC8 0, 0, 0, 0, 0, 0, 0, 0, 0, 0, 0, 0, 0, 0, 0, 0
   \              000000000000
   \              00000000    
   \   00002891   000000000000       DC8 0, 0, 0, 0, 0, 0, 0, 0, 0, 0, 0, 0, 0, 0, 0, 0
   \              000000000000
   \              00000000    
   \   000028A1   000000000000       DC8 0, 0, 0, 0, 0, 0, 0, 0, 0, 0, 0, 0, 0, 0, 0, 0
   \              000000000000
   \              00000000    
   \   000028B1   000000000000       DC8 0, 0, 0, 0, 0, 0, 0, 0, 0, 0, 0, 0, 0, 0, 0, 0
   \              000000000000
   \              00000000    
   \   000028C1   000000000000       DC8 0, 0, 0, 0, 0, 0, 0, 0, 0, 0, 0, 0, 0, 0, 0, 0
   \              000000000000
   \              00000000    
   \   000028D1   000000000000       DC8 0, 0, 0, 0, 0, 0, 0, 0, 0, 0, 0, 0, 0, 0, 0, 0
   \              000000000000
   \              00000000    
   \   000028E1   000000000000       DC8 0, 0, 0, 0, 0, 0, 0, 0, 0, 0, 0, 0, 0, 0, 0, 0
   \              000000000000
   \              00000000    
   \   000028F1   000000000000       DC8 0, 0, 0, 0, 0, 0, 0, 0, 0, 0, 0, 0, 0, 0, 0, 0
   \              000000000000
   \              00000000    
   \   00002901   000000000000       DC8 0, 0, 0, 0, 0, 0, 0, 0, 0, 0, 0, 0, 0, 0, 0, 0
   \              000000000000
   \              00000000    
   \   00002911   000000000000       DC8 0, 0, 0, 0, 0, 0, 0, 0, 0, 0, 0, 0, 0, 0, 0, 0
   \              000000000000
   \              00000000    
   \   00002921   000000000000       DC8 0, 0, 0, 0, 0, 0, 0, 0, 0, 0, 0, 0, 0, 0, 0, 0
   \              000000000000
   \              00000000    
   \   00002931   000000000000       DC8 0, 0, 0, 0, 0, 0, 0, 0, 0, 0, 0, 0, 0, 0, 0, 0
   \              000000000000
   \              00000000    
   \   00002941   000000000000       DC8 0, 0, 0, 0, 0, 0, 0, 0, 0, 0, 0, 0, 0, 0, 0, 0
   \              000000000000
   \              00000000    
   \   00002951   000000000000       DC8 0, 0, 0, 0, 0, 0, 0, 0, 0, 0, 0, 0, 0, 0, 0, 0
   \              000000000000
   \              00000000    
   \   00002961   000000000000       DC8 0, 0, 0, 0, 0, 0, 0, 0, 0, 0, 0, 0, 0, 0, 0, 0
   \              000000000000
   \              00000000    
   \   00002971   000000000000       DC8 0, 0, 0, 0, 0, 0, 0, 0, 0, 0, 0, 0, 0, 0, 0, 0
   \              000000000000
   \              00000000    
   \   00002981   000000000000       DC8 0, 0, 0, 0, 0, 0, 0, 0, 0, 0, 0, 0, 0, 0, 0, 0
   \              000000000000
   \              00000000    
   \   00002991   000000000000       DC8 0, 0, 0, 0, 0, 0, 0, 0, 0, 0, 0, 0, 0, 0, 0, 0
   \              000000000000
   \              00000000    
   \   000029A1   000000000000       DC8 0, 0, 0, 0, 0, 0, 0, 0, 0, 0, 0, 0, 0, 0, 0, 0
   \              000000000000
   \              00000000    
   \   000029B1   000000000000       DC8 0, 0, 0, 0, 0, 0, 0, 0, 0, 0, 0, 0, 0, 0, 0, 0
   \              000000000000
   \              00000000    
   \   000029C1   000000000000       DC8 0, 0, 0, 0, 0, 0, 0, 0, 0, 0, 0, 0, 0, 0, 0, 0
   \              000000000000
   \              00000000    
   \   000029D1   000000000000       DC8 0, 0, 0, 0, 0, 0, 0, 0, 0, 0, 0, 0, 0, 0, 0, 0
   \              000000000000
   \              00000000    
   \   000029E1   000000000000       DC8 0, 0, 0, 0, 0, 0, 0, 0, 0, 0, 0, 0, 0, 0, 0, 0
   \              000000000000
   \              00000000    
   \   000029F1   000000000000       DC8 0, 0, 0, 0, 0, 0, 0, 0, 0, 0, 0, 0, 0, 0, 0, 0
   \              000000000000
   \              00000000    
   \   00002A01   000000000000       DC8 0, 0, 0, 0, 0, 0, 0, 0, 0, 0, 0, 0, 0, 0, 0, 0
   \              000000000000
   \              00000000    
   \   00002A11   000000000000       DC8 0, 0, 0, 0, 0, 0, 0, 0, 0, 0, 0, 0, 0, 0, 0, 0
   \              000000000000
   \              00000000    
   \   00002A21   000000000000       DC8 0, 0, 0, 0, 0, 0, 0, 0, 0, 0, 0, 0, 0, 0, 0, 0
   \              000000000000
   \              00000000    
   \   00002A31   000000000000       DC8 0, 0, 0, 0, 0, 0, 0, 0, 0, 0, 0, 0, 0, 0, 0, 0
   \              000000000000
   \              00000000    
   \   00002A41   000000000000       DC8 0, 0, 0, 0, 0, 0, 0, 0, 0, 0, 0, 0, 0, 0, 0, 0
   \              000000000000
   \              00000000    
   \   00002A51   000000000000       DC8 0, 0, 0, 0, 0, 0, 0, 0, 0, 0, 0, 0, 0, 0, 0, 0
   \              000000000000
   \              00000000    
   \   00002A61   000000000000       DC8 0, 0, 0, 0, 0, 0, 0, 0, 0, 0, 0, 0, 0, 0, 0, 0
   \              000000000000
   \              00000000    
   \   00002A71   000000000000       DC8 0, 0, 0, 0, 0, 0, 0, 0, 0, 0, 0, 0, 0, 0, 0, 0
   \              000000000000
   \              00000000    
   \   00002A81   000000000000       DC8 0, 0, 0, 0, 0, 0, 0, 0, 0, 0, 0, 0, 0, 0, 0, 0
   \              000000000000
   \              00000000    
   \   00002A91   000000000000       DC8 0, 0, 0, 0, 0, 0, 0, 0, 0, 0, 0, 0, 0, 0, 0, 0
   \              000000000000
   \              00000000    
   \   00002AA1   000000000000       DC8 0, 0, 0, 0, 0, 0, 0, 0, 0, 0, 0, 0, 0, 0, 0, 0
   \              000000000000
   \              00000000    
   \   00002AB1   000000000000       DC8 0, 0, 0, 0, 0, 0, 0, 0, 0, 0, 0, 0, 0, 0, 0, 0
   \              000000000000
   \              00000000    
   \   00002AC1   000000000000       DC8 0, 0, 0, 0, 0, 0, 0, 0, 0, 0, 0, 0, 0, 0, 0, 0
   \              000000000000
   \              00000000    
   \   00002AD1   000000000000       DC8 0, 0, 0, 0, 0, 0, 0, 0, 0, 0, 0, 0, 0, 0, 0, 0
   \              000000000000
   \              00000000    
   \   00002AE1   000000000000       DC8 0, 0, 0, 0, 0, 0, 0, 0, 0, 0, 0, 0, 0, 0, 0, 0
   \              000000000000
   \              00000000    
   \   00002AF1   000000000000       DC8 0, 0, 0, 0, 0, 0, 0, 0, 0, 0, 0, 0, 0, 0, 0, 0
   \              000000000000
   \              00000000    
   \   00002B01   000000000000       DC8 0, 0, 0, 0, 0, 0, 0, 0, 0, 0, 0, 0, 0, 0, 0, 0
   \              000000000000
   \              00000000    
   \   00002B11   000000000000       DC8 0, 0, 0, 0, 0, 0, 0, 0, 0, 0, 0, 0, 0, 0, 0, 0
   \              000000000000
   \              00000000    
   \   00002B21   000000000000       DC8 0, 0, 0, 0, 0, 0, 0, 0, 0, 0, 0, 0, 0, 0, 0, 0
   \              000000000000
   \              00000000    
   \   00002B31   000000000000       DC8 0, 0, 0, 0, 0, 0, 0, 0, 0, 0, 0, 0, 0, 0, 0, 0
   \              000000000000
   \              00000000    
   \   00002B41   000000000000       DC8 0, 0, 0, 0, 0, 0, 0, 0, 0, 0, 0, 0, 0, 0, 0, 0
   \              000000000000
   \              00000000    
   \   00002B51   000000000000       DC8 0, 0, 0, 0, 0, 0, 0, 0, 0, 0, 0, 0, 0, 0, 0, 0
   \              000000000000
   \              00000000    
   \   00002B61   000000000000       DC8 0, 0, 0, 0, 0, 0, 0, 0, 0, 0, 0, 0, 0, 0, 0, 0
   \              000000000000
   \              00000000    
   \   00002B71   000000000000       DC8 0, 0, 0, 0, 0, 0, 0, 0, 0, 0, 0, 0, 0, 0, 0, 0
   \              000000000000
   \              00000000    
   \   00002B81   000000000000       DC8 0, 0, 0, 0, 0, 0, 0, 0, 0, 0, 0, 0, 0, 0, 0, 0
   \              000000000000
   \              00000000    
   \   00002B91   000000000000       DC8 0, 0, 0, 0, 0, 0, 0, 0, 0, 0, 0, 0, 0, 0, 0, 0
   \              000000000000
   \              00000000    
   \   00002BA1   000000000000       DC8 0, 0, 0, 0, 0, 0, 0, 0, 0, 0, 0, 0, 0, 0, 0, 0
   \              000000000000
   \              00000000    
   \   00002BB1   000000000000       DC8 0, 0, 0, 0, 0, 0, 0, 0, 0, 0, 0, 0, 0, 0, 0, 0
   \              000000000000
   \              00000000    
   \   00002BC1   000000000000       DC8 0, 0, 0, 0, 0, 0, 0, 0, 0, 0, 0, 0, 0, 0, 0, 0
   \              000000000000
   \              00000000    
   \   00002BD1   000000000000       DC8 0, 0, 0, 0, 0, 0, 0, 0, 0, 0, 0, 0, 0, 0, 0, 0
   \              000000000000
   \              00000000    
   \   00002BE1   000000000000       DC8 0, 0, 0, 0, 0, 0, 0, 0, 0, 0, 0, 0, 0, 0, 0, 0
   \              000000000000
   \              00000000    
   \   00002BF1   000000000000       DC8 0, 0, 0, 0, 0, 0, 0, 0, 0, 0, 0, 0, 0, 0, 0, 0
   \              000000000000
   \              00000000    
   \   00002C01   000000000000       DC8 0, 0, 0, 0, 0, 0, 0, 0, 0, 0, 0, 0, 0, 0, 0, 0
   \              000000000000
   \              00000000    
   \   00002C11   000000000000       DC8 0, 0, 0, 0, 0, 0, 0, 0, 0, 0, 0, 0, 0, 0, 0, 0
   \              000000000000
   \              00000000    
   \   00002C21   000000000000       DC8 0, 0, 0, 0, 0, 0, 0, 0, 0, 0, 0, 0, 0, 0, 0, 0
   \              000000000000
   \              00000000    
   \   00002C31   000000000000       DC8 0, 0, 0, 0, 0, 0, 0, 0, 0, 0, 0, 0, 0, 0, 0, 0
   \              000000000000
   \              00000000    
   \   00002C41   000000000000       DC8 0, 0, 0, 0, 0, 0, 0, 0, 0, 0, 0, 0, 0, 0, 0, 0
   \              000000000000
   \              00000000    
   \   00002C51   000000000000       DC8 0, 0, 0, 0, 0, 0, 0, 0, 0, 0, 0, 0, 0, 0, 0, 0
   \              000000000000
   \              00000000    
   \   00002C61   000000000000       DC8 0, 0, 0, 0, 0, 0, 0, 0, 0, 0, 0, 0, 0, 0, 0, 0
   \              000000000000
   \              00000000    
   \   00002C71   000000000000       DC8 0, 0, 0, 0, 0, 0, 0, 0, 0, 0, 0, 0, 0, 0, 0, 0
   \              000000000000
   \              00000000    
   \   00002C81   000000000000       DC8 0, 0, 0, 0, 0, 0, 0, 0, 0, 0, 0, 0, 0, 0, 0, 0
   \              000000000000
   \              00000000    
   \   00002C91   000000000000       DC8 0, 0, 0, 0, 0, 0, 0, 0, 0, 0, 0, 0, 0, 0, 0, 0
   \              000000000000
   \              00000000    
   \   00002CA1   000000000000       DC8 0, 0, 0, 0, 0, 0, 0, 0, 0, 0, 0, 0, 0, 0, 0, 0
   \              000000000000
   \              00000000    
   \   00002CB1   000000000000       DC8 0, 0, 0, 0, 0, 0, 0, 0, 0, 0, 0, 0, 0, 0, 0, 0
   \              000000000000
   \              00000000    
   \   00002CC1   000000000000       DC8 0, 0, 0, 0, 0, 0, 0, 0, 0, 0, 0, 0, 0, 0, 0, 0
   \              000000000000
   \              00000000    
   \   00002CD1   000000000000       DC8 0, 0, 0, 0, 0, 0, 0, 0, 0, 0, 0, 0, 0, 0, 0, 0
   \              000000000000
   \              00000000    
   \   00002CE1   000000000000       DC8 0, 0, 0, 0, 0, 0, 0, 0, 0, 0, 0, 0, 0, 0, 0, 0
   \              000000000000
   \              00000000    
   \   00002CF1   000000000000       DC8 0, 0, 0, 0, 0, 0, 0, 0, 0, 0, 0, 0, 0, 0, 0, 0
   \              000000000000
   \              00000000    
   \   00002D01   000000000000       DC8 0, 0, 0, 0, 0, 0, 0, 0, 0, 0, 0, 0, 0, 0, 0, 0
   \              000000000000
   \              00000000    
   \   00002D11   000000000000       DC8 0, 0, 0, 0, 0, 0, 0, 0, 0, 0, 0, 0, 0, 0, 0, 0
   \              000000000000
   \              00000000    
   \   00002D21   000000000000       DC8 0, 0, 0, 0, 0, 0, 0, 0, 0, 0, 0, 0, 0, 0, 0, 0
   \              000000000000
   \              00000000    
   \   00002D31   000000000000       DC8 0, 0, 0, 0, 0, 0, 0, 0, 0, 0, 0, 0, 0, 0, 0, 0
   \              000000000000
   \              00000000    
   \   00002D41   000000000000       DC8 0, 0, 0, 0, 0, 0, 0, 0, 0, 0, 0, 0, 0, 0, 0, 0
   \              000000000000
   \              00000000    
   \   00002D51   000000000000       DC8 0, 0, 0, 0, 0, 0, 0, 0, 0, 0, 0, 0, 0, 0, 0, 0
   \              000000000000
   \              00000000    
   \   00002D61   000000000000       DC8 0, 0, 0, 0, 0, 0, 0, 0, 0, 0, 0, 0, 0, 0, 0, 0
   \              000000000000
   \              00000000    
   \   00002D71   000000000000       DC8 0, 0, 0, 0, 0, 0, 0, 0, 0, 0, 0, 0, 0, 0, 0, 0
   \              000000000000
   \              00000000    
   \   00002D81   000000000000       DC8 0, 0, 0, 0, 0, 0, 0, 0, 0, 0, 0, 0, 0, 0, 0, 0
   \              000000000000
   \              00000000    
   \   00002D91   000000000000       DC8 0, 0, 0, 0, 0, 0, 0, 0, 0, 0, 0, 0, 0, 0, 0, 0
   \              000000000000
   \              00000000    
   \   00002DA1   000000000000       DC8 0, 0, 0, 0, 0, 0, 0, 0, 0, 0, 0, 0, 0, 0, 0, 0
   \              000000000000
   \              00000000    
   \   00002DB1   000000000000       DC8 0, 0, 0, 0, 0, 0, 0, 0, 0, 0, 0, 0, 0, 0, 0, 0
   \              000000000000
   \              00000000    
   \   00002DC1   000000000000       DC8 0, 0, 0, 0, 0, 0, 0, 0, 0, 0, 0, 0, 0, 0, 0, 0
   \              000000000000
   \              00000000    
   \   00002DD1   000000000000       DC8 0, 0, 0, 0, 0, 0, 0, 0, 0, 0, 0, 0, 0, 0, 0, 0
   \              000000000000
   \              00000000    
   \   00002DE1   000000000000       DC8 0, 0, 0, 0, 0, 0, 0, 0, 0, 0, 0, 0, 0, 0, 0, 0
   \              000000000000
   \              00000000    
   \   00002DF1   000000000000       DC8 0, 0, 0, 0, 0, 0, 0, 0, 0, 0, 0, 0, 0, 0, 0, 0
   \              000000000000
   \              00000000    
   \   00002E01   000000000000       DC8 0, 0, 0, 0, 0, 0, 0, 0, 0, 0, 0, 0, 0, 0, 0, 0
   \              000000000000
   \              00000000    
   \   00002E11   000000000000       DC8 0, 0, 0, 0, 0, 0, 0, 0, 0, 0, 0, 0, 0, 0, 0, 0
   \              000000000000
   \              00000000    
   \   00002E21   000000000000       DC8 0, 0, 0, 0, 0, 0, 0, 0, 0, 0, 0, 0, 0, 0, 0, 0
   \              000000000000
   \              00000000    
   \   00002E31   000000000000       DC8 0, 0, 0, 0, 0, 0, 0, 0, 0, 0, 0, 0, 0, 0, 0, 0
   \              000000000000
   \              00000000    
   \   00002E41   000000000000       DC8 0, 0, 0, 0, 0, 0, 0, 0, 0, 0, 0, 0, 0, 0, 0, 0
   \              000000000000
   \              00000000    
   \   00002E51   000000000000       DC8 0, 0, 0, 0, 0, 0, 0, 0, 0, 0, 0, 0, 0, 0, 0, 0
   \              000000000000
   \              00000000    
   \   00002E61   000000000000       DC8 0, 0, 0, 0, 0, 0, 0, 0, 0, 0, 0, 0, 0, 0, 0, 0
   \              000000000000
   \              00000000    
   \   00002E71   000000000000       DC8 0, 0, 0, 0, 0, 0, 0, 0, 0, 0, 0, 0, 0, 0, 0, 0
   \              000000000000
   \              00000000    
   \   00002E81   000000000000       DC8 0, 0, 0, 0, 0, 0, 0, 0, 0, 0, 0, 0, 0, 0, 0, 0
   \              000000000000
   \              00000000    
   \   00002E91   000000000000       DC8 0, 0, 0, 0, 0, 0, 0, 0, 0, 0, 0, 0, 0, 0, 0, 0
   \              000000000000
   \              00000000    
   \   00002EA1   000000000000       DC8 0, 0, 0, 0, 0, 0, 0, 0, 0, 0, 0, 0, 0, 0, 0, 0
   \              000000000000
   \              00000000    
   \   00002EB1   000000000000       DC8 0, 0, 0, 0, 0, 0, 0, 0, 0, 0, 0, 0, 0, 0, 0, 0
   \              000000000000
   \              00000000    
   \   00002EC1   000000000000       DC8 0, 0, 0, 0, 0, 0, 0, 0, 0, 0, 0, 0, 0, 0, 0, 0
   \              000000000000
   \              00000000    
   \   00002ED1   000000000000       DC8 0, 0, 0, 0, 0, 0, 0, 0, 0, 0, 0, 0, 0, 0, 0, 0
   \              000000000000
   \              00000000    
   \   00002EE1   000000000000       DC8 0, 0, 0, 0, 0, 0, 0, 0, 0, 0, 0, 0, 0, 0, 0, 0
   \              000000000000
   \              00000000    
   \   00002EF1   000000000000       DC8 0, 0, 0, 0, 0, 0, 0, 0, 0, 0, 0, 0, 0, 0, 0, 0
   \              000000000000
   \              00000000    
   \   00002F01   000000000000       DC8 0, 0, 0, 0, 0, 0, 0, 0, 0, 0, 0, 0, 0, 0, 0, 0
   \              000000000000
   \              00000000    
   \   00002F11   000000000000       DC8 0, 0, 0, 0, 0, 0, 0, 0, 0, 0, 0, 0, 0, 0, 0, 0
   \              000000000000
   \              00000000    
   \   00002F21   000000000000       DC8 0, 0, 0, 0, 0, 0, 0, 0, 0, 0, 0, 0, 0, 0, 0, 0
   \              000000000000
   \              00000000    
   \   00002F31   000000000000       DC8 0, 0, 0, 0, 0, 0, 0, 0, 0, 0, 0, 0, 0, 0, 0, 0
   \              000000000000
   \              00000000    
   \   00002F41   000000000000       DC8 0, 0, 0, 0, 0, 0, 0, 0, 0, 0, 0, 0, 0, 0, 0, 0
   \              000000000000
   \              00000000    
   \   00002F51   000000000000       DC8 0, 0, 0, 0, 0, 0, 0, 0, 0, 0, 0, 0, 0, 0, 0, 0
   \              000000000000
   \              00000000    
   \   00002F61   000000000000       DC8 0, 0, 0, 0, 0, 0, 0, 0, 0, 0, 0, 0, 0, 0, 0, 0
   \              000000000000
   \              00000000    
   \   00002F71   000000000000       DC8 0, 0, 0, 0, 0, 0, 0, 0, 0, 0, 0, 0, 0, 0, 0, 0
   \              000000000000
   \              00000000    
   \   00002F81   000000000000       DC8 0, 0, 0, 0, 0, 0, 0, 0, 0, 0, 0, 0, 0, 0, 0, 0
   \              000000000000
   \              00000000    
   \   00002F91   000000000000       DC8 0, 0, 0, 0, 0, 0, 0, 0, 0, 0, 0, 0, 0, 0, 0, 0
   \              000000000000
   \              00000000    
   \   00002FA1   000000000000       DC8 0, 0, 0, 0, 0, 0, 0, 0, 0, 0, 0, 0, 0, 0, 0, 0
   \              000000000000
   \              00000000    
   \   00002FB1   000000000000       DC8 0, 0, 0, 0, 0, 0, 0, 0, 0, 0, 0, 0, 0, 0, 0, 0
   \              000000000000
   \              00000000    
   \   00002FC1   000000000000       DC8 0, 0, 0, 0, 0, 0, 0, 0, 0, 0, 0, 0, 0, 0, 0, 0
   \              000000000000
   \              00000000    
   \   00002FD1   000000000000       DC8 0, 0, 0, 0, 0, 0, 0, 0, 0, 0, 0, 0, 0, 0, 0, 0
   \              000000000000
   \              00000000    
   \   00002FE1   000000000000       DC8 0, 0, 0, 0, 0, 0, 0, 0, 0, 0, 0, 0, 0, 0, 0, 0
   \              000000000000
   \              00000000    
   \   00002FF1   000000000000       DC8 0, 0, 0, 0, 0, 0, 0, 0, 0, 0, 0, 0, 0, 0, 0, 0
   \              000000000000
   \              00000000    
   \   00003001   000000000000       DC8 0, 0, 0, 0, 0, 0, 0, 0, 0, 0, 0, 0, 0, 0, 0, 0
   \              000000000000
   \              00000000    
   \   00003011   000000000000       DC8 0, 0, 0, 0, 0, 0, 0, 0, 0, 0, 0, 0, 0, 0, 0, 0
   \              000000000000
   \              00000000    
   \   00003021   000000000000       DC8 0, 0, 0, 0, 0, 0, 0, 0, 0, 0, 0, 0, 0, 0, 0, 0
   \              000000000000
   \              00000000    
   \   00003031   000000000000       DC8 0, 0, 0, 0, 0, 0, 0, 0, 0, 0, 0, 0, 0, 0, 0, 0
   \              000000000000
   \              00000000    
   \   00003041   000000000000       DC8 0, 0, 0, 0, 0, 0, 0, 0, 0, 0, 0, 0, 0, 0, 0, 0
   \              000000000000
   \              00000000    
   \   00003051   000000000000       DC8 0, 0, 0, 0, 0, 0, 0, 0, 0, 0, 0, 0, 0, 0, 0, 0
   \              000000000000
   \              00000000    
   \   00003061   000000000000       DC8 0, 0, 0, 0, 0, 0, 0, 0, 0, 0, 0, 0, 0, 0, 0, 0
   \              000000000000
   \              00000000    
   \   00003071   000000000000       DC8 0, 0, 0, 0, 0, 0, 0, 0, 0, 0, 0, 0, 0, 0, 0, 0
   \              000000000000
   \              00000000    
   \   00003081   000000000000       DC8 0, 0, 0, 0, 0, 0, 0, 0, 0, 0, 0, 0, 0, 0, 0, 0
   \              000000000000
   \              00000000    
   \   00003091   000000000000       DC8 0, 0, 0, 0, 0, 0, 0, 0, 0, 0, 0, 0, 0, 0, 0, 0
   \              000000000000
   \              00000000    
   \   000030A1   000000000000       DC8 0, 0, 0, 0, 0, 0, 0, 0, 0, 0, 0, 0, 0, 0, 0, 0
   \              000000000000
   \              00000000    
   \   000030B1   000000000000       DC8 0, 0, 0, 0, 0, 0, 0, 0, 0, 0, 0, 0, 0, 0, 0, 0
   \              000000000000
   \              00000000    
   \   000030C1   000000000000       DC8 0, 0, 0, 0, 0, 0, 0, 0, 0, 0, 0, 0, 0, 0, 0, 0
   \              000000000000
   \              00000000    
   \   000030D1   000000000000       DC8 0, 0, 0, 0, 0, 0, 0, 0, 0, 0, 0, 0, 0, 0, 0, 0
   \              000000000000
   \              00000000    
   \   000030E1   000000000000       DC8 0, 0, 0, 0, 0, 0, 0, 0, 0, 0, 0, 0, 0, 0, 0, 0
   \              000000000000
   \              00000000    
   \   000030F1   000000000000       DC8 0, 0, 0, 0, 0, 0, 0, 0, 0, 0, 0, 0, 0, 0, 0, 0
   \              000000000000
   \              00000000    
   \   00003101   000000000000       DC8 0, 0, 0, 0, 0, 0, 0, 0, 0, 0, 0, 0, 0, 0, 0, 0
   \              000000000000
   \              00000000    
   \   00003111   000000000000       DC8 0, 0, 0, 0, 0, 0, 0, 0, 0, 0, 0, 0, 0, 0, 0, 0
   \              000000000000
   \              00000000    
   \   00003121   000000000000       DC8 0, 0, 0, 0, 0, 0, 0, 0, 0, 0, 0, 0, 0, 0, 0, 0
   \              000000000000
   \              00000000    
   \   00003131   000000000000       DC8 0, 0, 0, 0, 0, 0, 0, 0, 0, 0, 0, 0, 0, 0, 0, 0
   \              000000000000
   \              00000000    
   \   00003141   000000000000       DC8 0, 0, 0, 0, 0, 0, 0, 0, 0, 0, 0, 0, 0, 0, 0, 0
   \              000000000000
   \              00000000    
   \   00003151   000000000000       DC8 0, 0, 0, 0, 0, 0, 0, 0, 0, 0, 0, 0, 0, 0, 0, 0
   \              000000000000
   \              00000000    
   \   00003161   000000000000       DC8 0, 0, 0, 0, 0, 0, 0, 0, 0, 0, 0, 0, 0, 0, 0, 0
   \              000000000000
   \              00000000    
   \   00003171   000000000000       DC8 0, 0, 0, 0, 0, 0, 0, 0, 0, 0, 0, 0, 0, 0, 0, 0
   \              000000000000
   \              00000000    
   \   00003181   000000000000       DC8 0, 0, 0, 0, 0, 0, 0, 0, 0, 0, 0, 0, 0, 0, 0, 0
   \              000000000000
   \              00000000    
   \   00003191   000000000000       DC8 0, 0, 0, 0, 0, 0, 0, 0, 0, 0, 0, 0, 0, 0, 0, 0
   \              000000000000
   \              00000000    
   \   000031A1   000000000000       DC8 0, 0, 0, 0, 0, 0, 0, 0, 0, 0, 0, 0, 0, 0, 0, 0
   \              000000000000
   \              00000000    
   \   000031B1   000000000000       DC8 0, 0, 0, 0, 0, 0, 0, 0, 0, 0, 0, 0, 0, 0, 0, 0
   \              000000000000
   \              00000000    
   \   000031C1   000000000000       DC8 0, 0, 0, 0, 0, 0, 0, 0, 0, 0, 0, 0, 0, 0, 0, 0
   \              000000000000
   \              00000000    
   \   000031D1   000000000000       DC8 0, 0, 0, 0, 0, 0, 0, 0, 0, 0, 0, 0, 0, 0, 0, 0
   \              000000000000
   \              00000000    
   \   000031E1   000000000000       DC8 0, 0, 0, 0, 0, 0, 0, 0, 0, 0, 0, 0, 0, 0, 0, 0
   \              000000000000
   \              00000000    
   \   000031F1   000000000000       DC8 0, 0, 0, 0, 0, 0, 0, 0, 0, 0, 0, 0, 0, 0, 0, 0
   \              000000000000
   \              00000000    
   \   00003201   000000000000       DC8 0, 0, 0, 0, 0, 0, 0, 0, 0, 0, 0, 0, 0, 0, 0, 0
   \              000000000000
   \              00000000    
   \   00003211   000000000000       DC8 0, 0, 0, 0, 0, 0, 0, 0, 0, 0, 0, 0, 0, 0, 0, 0
   \              000000000000
   \              00000000    
   \   00003221   000000000000       DC8 0, 0, 0, 0, 0, 0, 0, 0, 0, 0, 0, 0, 0, 0, 0, 0
   \              000000000000
   \              00000000    
   \   00003231   000000000000       DC8 0, 0, 0, 0, 0, 0, 0, 0, 0, 0, 0, 0, 0, 0, 0, 0
   \              000000000000
   \              00000000    
   \   00003241   000000000000       DC8 0, 0, 0, 0, 0, 0, 0, 0, 0, 0, 0, 0, 0, 0, 0, 0
   \              000000000000
   \              00000000    
   \   00003251   000000000000       DC8 0, 0, 0, 0, 0, 0, 0, 0, 0, 0, 0, 0, 0, 0, 0, 0
   \              000000000000
   \              00000000    
   \   00003261   000000000000       DC8 0, 0, 0, 0, 0, 0, 0, 0, 0, 0, 0, 0, 0, 0, 0, 0
   \              000000000000
   \              00000000    
   \   00003271   000000000000       DC8 0, 0, 0, 0, 0, 0, 0, 0, 0, 0, 0, 0, 0, 0, 0, 0
   \              000000000000
   \              00000000    
   \   00003281   000000000000       DC8 0, 0, 0, 0, 0, 0, 0, 0, 0, 0, 0, 0, 0, 0, 0, 0
   \              000000000000
   \              00000000    
   \   00003291   000000000000       DC8 0, 0, 0, 0, 0, 0, 0, 0, 0, 0, 0, 0, 0, 0, 0, 0
   \              000000000000
   \              00000000    
   \   000032A1   000000000000       DC8 0, 0, 0, 0, 0, 0, 0, 0, 0, 0, 0, 0, 0, 0, 0, 0
   \              000000000000
   \              00000000    
   \   000032B1   000000000000       DC8 0, 0, 0, 0, 0, 0, 0, 0, 0, 0, 0, 0, 0, 0, 0, 0
   \              000000000000
   \              00000000    
   \   000032C1   000000000000       DC8 0, 0, 0, 0, 0, 0, 0, 0, 0, 0, 0, 0, 0, 0, 0, 0
   \              000000000000
   \              00000000    
   \   000032D1   000000000000       DC8 0, 0, 0, 0, 0, 0, 0, 0, 0, 0, 0, 0, 0, 0, 0, 0
   \              000000000000
   \              00000000    
   \   000032E1   000000000000       DC8 0, 0, 0, 0, 0, 0, 0, 0, 0, 0, 0, 0, 0, 0, 0, 0
   \              000000000000
   \              00000000    
   \   000032F1   000000000000       DC8 0, 0, 0, 0, 0, 0, 0, 0, 0, 0, 0, 0, 0, 0, 0, 0
   \              000000000000
   \              00000000    
   \   00003301   000000000000       DC8 0, 0, 0, 0, 0, 0, 0, 0, 0, 0, 0, 0, 0, 0, 0, 0
   \              000000000000
   \              00000000    
   \   00003311   000000000000       DC8 0, 0, 0, 0, 0, 0, 0, 0, 0, 0, 0, 0, 0, 0, 0, 0
   \              000000000000
   \              00000000    
   \   00003321   000000000000       DC8 0, 0, 0, 0, 0, 0, 0, 0, 0, 0, 0, 0, 0, 0, 0, 0
   \              000000000000
   \              00000000    
   \   00003331   000000000000       DC8 0, 0, 0, 0, 0, 0, 0, 0, 0, 0, 0, 0, 0, 0, 0, 0
   \              000000000000
   \              00000000    
   \   00003341   000000000000       DC8 0, 0, 0, 0, 0, 0, 0, 0, 0, 0, 0, 0, 0, 0, 0, 0
   \              000000000000
   \              00000000    
   \   00003351   000000000000       DC8 0, 0, 0, 0, 0, 0, 0, 0, 0, 0, 0, 0, 0, 0, 0, 0
   \              000000000000
   \              00000000    
   \   00003361   000000000000       DC8 0, 0, 0, 0, 0, 0, 0, 0, 0, 0, 0, 0, 0, 0, 0, 0
   \              000000000000
   \              00000000    
   \   00003371   000000000000       DC8 0, 0, 0, 0, 0, 0, 0, 0, 0, 0, 0, 0, 0, 0, 0, 0
   \              000000000000
   \              00000000    
   \   00003381   000000000000       DC8 0, 0, 0, 0, 0, 0, 0, 0, 0, 0, 0, 0, 0, 0, 0, 0
   \              000000000000
   \              00000000    
   \   00003391   000000000000       DC8 0, 0, 0, 0, 0, 0, 0, 0, 0, 0, 0, 0, 0, 0, 0, 0
   \              000000000000
   \              00000000    
   \   000033A1   000000000000       DC8 0, 0, 0, 0, 0, 0, 0, 0, 0, 0, 0, 0, 0, 0, 0, 0
   \              000000000000
   \              00000000    
   \   000033B1   000000000000       DC8 0, 0, 0, 0, 0, 0, 0, 0, 0, 0, 0, 0, 0, 0, 0, 0
   \              000000000000
   \              00000000    
   \   000033C1   000000000000       DC8 0, 0, 0, 0, 0, 0, 0, 0, 0, 0, 0, 0, 0, 0, 0, 0
   \              000000000000
   \              00000000    
   \   000033D1   000000000000       DC8 0, 0, 0, 0, 0, 0, 0, 0, 0, 0, 0, 0, 0, 0, 0, 0
   \              000000000000
   \              00000000    
   \   000033E1   000000000000       DC8 0, 0, 0, 0, 0, 0, 0, 0, 0, 0, 0, 0, 0, 0, 0, 0
   \              000000000000
   \              00000000    
   \   000033F1   000000000000       DC8 0, 0, 0, 0, 0, 0, 0, 0, 0, 0, 0, 0, 0, 0, 0, 0
   \              000000000000
   \              00000000    
   \   00003401   000000000000       DC8 0, 0, 0, 0, 0, 0, 0, 0, 0, 0, 0, 0, 0, 0, 0, 0
   \              000000000000
   \              00000000    
   \   00003411   000000000000       DC8 0, 0, 0, 0, 0, 0, 0, 0, 0, 0, 0, 0, 0, 0, 0, 0
   \              000000000000
   \              00000000    
   \   00003421   000000000000       DC8 0, 0, 0, 0, 0, 0, 0, 0, 0, 0, 0, 0, 0, 0, 0, 0
   \              000000000000
   \              00000000    
   \   00003431   000000000000       DC8 0, 0, 0, 0, 0, 0, 0, 0, 0, 0, 0, 0, 0, 0, 0, 0
   \              000000000000
   \              00000000    
   \   00003441   000000000000       DC8 0, 0, 0, 0, 0, 0, 0, 0, 0, 0, 0, 0, 0, 0, 0, 0
   \              000000000000
   \              00000000    
   \   00003451   000000000000       DC8 0, 0, 0, 0, 0, 0, 0, 0, 0, 0, 0, 0, 0, 0, 0, 0
   \              000000000000
   \              00000000    
   \   00003461   000000000000       DC8 0, 0, 0, 0, 0, 0, 0, 0, 0, 0, 0, 0, 0, 0, 0, 0
   \              000000000000
   \              00000000    
   \   00003471   000000000000       DC8 0, 0, 0, 0, 0, 0, 0, 0, 0, 0, 0, 0, 0, 0, 0, 0
   \              000000000000
   \              00000000    
   \   00003481   000000000000       DC8 0, 0, 0, 0, 0, 0, 0, 0, 0, 0, 0, 0, 0, 0, 0, 0
   \              000000000000
   \              00000000    
   \   00003491   000000000000       DC8 0, 0, 0, 0, 0, 0, 0, 0, 0, 0, 0, 0, 0, 0, 0, 0
   \              000000000000
   \              00000000    
   \   000034A1   000000000000       DC8 0, 0, 0, 0, 0, 0, 0, 0, 0, 0, 0, 0, 0, 0, 0, 0
   \              000000000000
   \              00000000    
   \   000034B1   000000000000       DC8 0, 0, 0, 0, 0, 0, 0, 0, 0, 0, 0, 0, 0, 0, 0, 0
   \              000000000000
   \              00000000    
   \   000034C1   000000000000       DC8 0, 0, 0, 0, 0, 0, 0, 0, 0, 0, 0, 0, 0, 0, 0, 0
   \              000000000000
   \              00000000    
   \   000034D1   000000000000       DC8 0, 0, 0, 0, 0, 0, 0, 0, 0, 0, 0, 0, 0, 0, 0, 0
   \              000000000000
   \              00000000    
   \   000034E1   000000000000       DC8 0, 0, 0, 0, 0, 0, 0, 0, 0, 0, 0, 0, 0, 0, 0, 0
   \              000000000000
   \              00000000    
   \   000034F1   000000000000       DC8 0, 0, 0, 0, 0, 0, 0, 0, 0, 0, 0, 0, 0, 0, 0, 0
   \              000000000000
   \              00000000    
   \   00003501   000000000000       DC8 0, 0, 0, 0, 0, 0, 0, 0, 0, 0, 0, 0, 0, 0, 0, 0
   \              000000000000
   \              00000000    
   \   00003511   000000000000       DC8 0, 0, 0, 0, 0, 0, 0, 0, 0, 0, 0, 0, 0, 0, 0, 0
   \              000000000000
   \              00000000    
   \   00003521   000000000000       DC8 0, 0, 0, 0, 0, 0, 0, 0, 0, 0, 0, 0, 0, 0, 0, 0
   \              000000000000
   \              00000000    
   \   00003531   000000000000       DC8 0, 0, 0, 0, 0, 0, 0, 0, 0, 0, 0, 0, 0, 0, 0, 0
   \              000000000000
   \              00000000    
   \   00003541   000000000000       DC8 0, 0, 0, 0, 0, 0, 0, 0, 0, 0, 0, 0, 0, 0, 0, 0
   \              000000000000
   \              00000000    
   \   00003551   000000000000       DC8 0, 0, 0, 0, 0, 0, 0, 0, 0, 0, 0, 0, 0, 0, 0, 0
   \              000000000000
   \              00000000    
   \   00003561   000000000000       DC8 0, 0, 0, 0, 0, 0, 0, 0, 0, 0, 0, 0, 0, 0, 0, 0
   \              000000000000
   \              00000000    
   \   00003571   000000000000       DC8 0, 0, 0, 0, 0, 0, 0, 0, 0, 0, 0, 0, 0, 0, 0, 0
   \              000000000000
   \              00000000    
   \   00003581   000000000000       DC8 0, 0, 0, 0, 0, 0, 0, 0, 0, 0, 0, 0, 0, 0, 0, 0
   \              000000000000
   \              00000000    
   \   00003591   000000000000       DC8 0, 0, 0, 0, 0, 0, 0, 0, 0, 0, 0, 0, 0, 0, 0, 0
   \              000000000000
   \              00000000    
   \   000035A1   000000000000       DC8 0, 0, 0, 0, 0, 0, 0, 0, 0, 0, 0, 0, 0, 0, 0, 0
   \              000000000000
   \              00000000    
   \   000035B1   000000000000       DC8 0, 0, 0, 0, 0, 0, 0, 0, 0, 0, 0, 0, 0, 0, 0, 0
   \              000000000000
   \              00000000    
   \   000035C1   000000000000       DC8 0, 0, 0, 0, 0, 0, 0, 0, 0, 0, 0, 0, 0, 0, 0, 0
   \              000000000000
   \              00000000    
   \   000035D1   000000000000       DC8 0, 0, 0, 0, 0, 0, 0, 0, 0, 0, 0, 0, 0, 0, 0, 0
   \              000000000000
   \              00000000    
   \   000035E1   000000000000       DC8 0, 0, 0, 0, 0, 0, 0, 0, 0, 0, 0, 0, 0, 0, 0, 0
   \              000000000000
   \              00000000    
   \   000035F1   000000000000       DC8 0, 0, 0, 0, 0, 0, 0, 0, 0, 0, 0, 0, 0, 0, 0, 0
   \              000000000000
   \              00000000    
   \   00003601   000000000000       DC8 0, 0, 0, 0, 0, 0, 0, 0, 0, 0, 0, 0, 0, 0, 0, 0
   \              000000000000
   \              00000000    
   \   00003611   000000000000       DC8 0, 0, 0, 0, 0, 0, 0, 0, 0, 0, 0, 0, 0, 0, 0, 0
   \              000000000000
   \              00000000    
   \   00003621   000000000000       DC8 0, 0, 0, 0, 0, 0, 0, 0, 0, 0, 0, 0, 0, 0, 0, 0
   \              000000000000
   \              00000000    
   \   00003631   000000000000       DC8 0, 0, 0, 0, 0, 0, 0, 0, 0, 0, 0, 0, 0, 0, 0, 0
   \              000000000000
   \              00000000    
   \   00003641   000000000000       DC8 0, 0, 0, 0, 0, 0, 0, 0, 0, 0, 0, 0, 0, 0, 0, 0
   \              000000000000
   \              00000000    
   \   00003651   000000000000       DC8 0, 0, 0, 0, 0, 0, 0, 0, 0, 0, 0, 0, 0, 0, 0, 0
   \              000000000000
   \              00000000    
   \   00003661   000000000000       DC8 0, 0, 0, 0, 0, 0, 0, 0, 0, 0, 0, 0, 0, 0, 0, 0
   \              000000000000
   \              00000000    
   \   00003671   000000000000       DC8 0, 0, 0, 0, 0, 0, 0, 0, 0, 0, 0, 0, 0, 0, 0, 0
   \              000000000000
   \              00000000    
   \   00003681   000000000000       DC8 0, 0, 0, 0, 0, 0, 0, 0, 0, 0, 0, 0, 0, 0, 0, 0
   \              000000000000
   \              00000000    
   \   00003691   000000000000       DC8 0, 0, 0, 0, 0, 0, 0, 0, 0, 0, 0, 0, 0, 0, 0, 0
   \              000000000000
   \              00000000    
   \   000036A1   000000000000       DC8 0, 0, 0, 0, 0, 0, 0, 0, 0, 0, 0, 0, 0, 0, 0, 0
   \              000000000000
   \              00000000    
   \   000036B1   000000000000       DC8 0, 0, 0, 0, 0, 0, 0, 0, 0, 0, 0, 0, 0, 0, 0, 0
   \              000000000000
   \              00000000    
   \   000036C1   000000000000       DC8 0, 0, 0, 0, 0, 0, 0, 0, 0, 0, 0, 0, 0, 0, 0, 0
   \              000000000000
   \              00000000    
   \   000036D1   000000000000       DC8 0, 0, 0, 0, 0, 0, 0, 0, 0, 0, 0, 0, 0, 0, 0, 0
   \              000000000000
   \              00000000    
   \   000036E1   000000000000       DC8 0, 0, 0, 0, 0, 0, 0, 0, 0, 0, 0, 0, 0, 0, 0, 0
   \              000000000000
   \              00000000    
   \   000036F1   000000000000       DC8 0, 0, 0, 0, 0, 0, 0, 0, 0, 0, 0, 0, 0, 0, 0, 0
   \              000000000000
   \              00000000    
   \   00003701   000000000000       DC8 0, 0, 0, 0, 0, 0, 0, 0, 0, 0, 0, 0, 0, 0, 0, 0
   \              000000000000
   \              00000000    
   \   00003711   000000000000       DC8 0, 0, 0, 0, 0, 0, 0, 0, 0, 0, 0, 0, 0, 0, 0, 0
   \              000000000000
   \              00000000    
   \   00003721   000000000000       DC8 0, 0, 0, 0, 0, 0, 0, 0, 0, 0, 0, 0, 0, 0, 0, 0
   \              000000000000
   \              00000000    
   \   00003731   000000000000       DC8 0, 0, 0, 0, 0, 0, 0, 0, 0, 0, 0, 0, 0, 0, 0, 0
   \              000000000000
   \              00000000    
   \   00003741   000000000000       DC8 0, 0, 0, 0, 0, 0, 0, 0, 0, 0, 0, 0, 0, 0, 0, 0
   \              000000000000
   \              00000000    
   \   00003751   000000000000       DC8 0, 0, 0, 0, 0, 0, 0, 0, 0, 0, 0, 0, 0, 0, 0, 0
   \              000000000000
   \              00000000    
   \   00003761   000000000000       DC8 0, 0, 0, 0, 0, 0, 0, 0, 0, 0, 0, 0, 0, 0, 0, 0
   \              000000000000
   \              00000000    
   \   00003771   000000000000       DC8 0, 0, 0, 0, 0, 0, 0, 0, 0, 0, 0, 0, 0, 0, 0, 0
   \              000000000000
   \              00000000    
   \   00003781   000000000000       DC8 0, 0, 0, 0, 0, 0, 0, 0, 0, 0, 0, 0, 0, 0, 0, 0
   \              000000000000
   \              00000000    
   \   00003791   000000000000       DC8 0, 0, 0, 0, 0, 0, 0, 0, 0, 0, 0, 0, 0, 0, 0, 0
   \              000000000000
   \              00000000    
   \   000037A1   000000000000       DC8 0, 0, 0, 0, 0, 0, 0, 0, 0, 0, 0, 0, 0, 0, 0, 0
   \              000000000000
   \              00000000    
   \   000037B1   000000000000       DC8 0, 0, 0, 0, 0, 0, 0, 0, 0, 0, 0, 0, 0, 0, 0, 0
   \              000000000000
   \              00000000    
   \   000037C1   000000000000       DC8 0, 0, 0, 0, 0, 0, 0, 0, 0, 0, 0, 0, 0, 0, 0, 0
   \              000000000000
   \              00000000    
   \   000037D1   000000000000       DC8 0, 0, 0, 0, 0, 0, 0, 0, 0, 0, 0, 0, 0, 0, 0, 0
   \              000000000000
   \              00000000    
   \   000037E1   000000000000       DC8 0, 0, 0, 0, 0, 0, 0, 0, 0, 0, 0, 0, 0, 0, 0, 0
   \              000000000000
   \              00000000    
   \   000037F1   000000000000       DC8 0, 0, 0, 0, 0, 0, 0, 0, 0, 0, 0, 0, 0, 0, 0, 0
   \              000000000000
   \              00000000    
   \   00003801   000000000000       DC8 0, 0, 0, 0, 0, 0, 0, 0, 0, 0, 0, 0, 0, 0, 0, 0
   \              000000000000
   \              00000000    
   \   00003811   000000000000       DC8 0, 0, 0, 0, 0, 0, 0, 0, 0, 0, 0, 0, 0, 0, 0, 0
   \              000000000000
   \              00000000    
   \   00003821   000000000000       DC8 0, 0, 0, 0, 0, 0, 0, 0, 0, 0, 0, 0, 0, 0, 0, 0
   \              000000000000
   \              00000000    
   \   00003831   000000000000       DC8 0, 0, 0, 0, 0, 0, 0, 0, 0, 0, 0, 0, 0, 0, 0, 0
   \              000000000000
   \              00000000    
   \   00003841   000000000000       DC8 0, 0, 0, 0, 0, 0, 0, 0, 0, 0, 0, 0, 0, 0, 0, 0
   \              000000000000
   \              00000000    
   \   00003851   000000000000       DC8 0, 0, 0, 0, 0, 0, 0, 0, 0, 0, 0, 0, 0, 0, 0, 0
   \              000000000000
   \              00000000    
   \   00003861   000000000000       DC8 0, 0, 0, 0, 0, 0, 0, 0, 0, 0, 0, 0, 0, 0, 0, 0
   \              000000000000
   \              00000000    
   \   00003871   000000000000       DC8 0, 0, 0, 0, 0, 0, 0, 0, 0, 0, 0, 0, 0, 0, 0, 0
   \              000000000000
   \              00000000    
   \   00003881   000000000000       DC8 0, 0, 0, 0, 0, 0, 0, 0, 0, 0, 0, 0, 0, 0, 0, 0
   \              000000000000
   \              00000000    
   \   00003891   000000000000       DC8 0, 0, 0, 0, 0, 0, 0, 0, 0, 0, 0, 0, 0, 0, 0, 0
   \              000000000000
   \              00000000    
   \   000038A1   000000000000       DC8 0, 0, 0, 0, 0, 0, 0, 0, 0, 0, 0, 0, 0, 0, 0, 0
   \              000000000000
   \              00000000    
   \   000038B1   000000000000       DC8 0, 0, 0, 0, 0, 0, 0, 0, 0, 0, 0, 0, 0, 0, 0, 0
   \              000000000000
   \              00000000    
   \   000038C1   000000000000       DC8 0, 0, 0, 0, 0, 0, 0, 0, 0, 0, 0, 0, 0, 0, 0, 0
   \              000000000000
   \              00000000    
   \   000038D1   000000000000       DC8 0, 0, 0, 0, 0, 0, 0, 0, 0, 0, 0, 0, 0, 0, 0, 0
   \              000000000000
   \              00000000    
   \   000038E1   000000000000       DC8 0, 0, 0, 0, 0, 0, 0, 0, 0, 0, 0, 0, 0, 0, 0, 0
   \              000000000000
   \              00000000    
   \   000038F1   000000000000       DC8 0, 0, 0, 0, 0, 0, 0, 0, 0, 0, 0, 0, 0, 0, 0, 0
   \              000000000000
   \              00000000    
   \   00003901   000000000000       DC8 0, 0, 0, 0, 0, 0, 0, 0, 0, 0, 0, 0, 0, 0, 0, 0
   \              000000000000
   \              00000000    
   \   00003911   000000000000       DC8 0, 0, 0, 0, 0, 0, 0, 0, 0, 0, 0, 0, 0, 0, 0, 0
   \              000000000000
   \              00000000    
   \   00003921   000000000000       DC8 0, 0, 0, 0, 0, 0, 0, 0, 0, 0, 0, 0, 0, 0, 0, 0
   \              000000000000
   \              00000000    
   \   00003931   000000000000       DC8 0, 0, 0, 0, 0, 0, 0, 0, 0, 0, 0, 0, 0, 0, 0, 0
   \              000000000000
   \              00000000    
   \   00003941   000000000000       DC8 0, 0, 0, 0, 0, 0, 0, 0, 0, 0, 0, 0, 0, 0, 0, 0
   \              000000000000
   \              00000000    
   \   00003951   000000000000       DC8 0, 0, 0, 0, 0, 0, 0, 0, 0, 0, 0, 0, 0, 0, 0, 0
   \              000000000000
   \              00000000    
   \   00003961   000000000000       DC8 0, 0, 0, 0, 0, 0, 0, 0, 0, 0, 0, 0, 0, 0, 0, 0
   \              000000000000
   \              00000000    
   \   00003971   000000000000       DC8 0, 0, 0, 0, 0, 0, 0, 0, 0, 0, 0, 0, 0, 0, 0, 0
   \              000000000000
   \              00000000    
   \   00003981   000000000000       DC8 0, 0, 0, 0, 0, 0, 0, 0, 0, 0, 0, 0, 0, 0, 0, 0
   \              000000000000
   \              00000000    
   \   00003991   000000000000       DC8 0, 0, 0, 0, 0, 0, 0, 0, 0, 0, 0, 0, 0, 0, 0, 0
   \              000000000000
   \              00000000    
   \   000039A1   000000000000       DC8 0, 0, 0, 0, 0, 0, 0, 0, 0, 0, 0, 0, 0, 0, 0, 0
   \              000000000000
   \              00000000    
   \   000039B1   000000000000       DC8 0, 0, 0, 0, 0, 0, 0, 0, 0, 0, 0, 0, 0, 0, 0, 0
   \              000000000000
   \              00000000    
   \   000039C1   000000000000       DC8 0, 0, 0, 0, 0, 0, 0, 0, 0, 0, 0, 0, 0, 0, 0, 0
   \              000000000000
   \              00000000    
   \   000039D1   000000000000       DC8 0, 0, 0, 0, 0, 0, 0, 0, 0, 0, 0, 0, 0, 0, 0, 0
   \              000000000000
   \              00000000    
   \   000039E1   000000000000       DC8 0, 0, 0, 0, 0, 0, 0, 0, 0, 0, 0, 0, 0, 0, 0, 0
   \              000000000000
   \              00000000    
   \   000039F1   000000000000       DC8 0, 0, 0, 0, 0, 0, 0, 0, 0, 0, 0, 0, 0, 0, 0, 0
   \              000000000000
   \              00000000    
   \   00003A01   000000000000       DC8 0, 0, 0, 0, 0, 0, 0, 0, 0, 0, 0, 0, 0, 0, 0, 0
   \              000000000000
   \              00000000    
   \   00003A11   000000000000       DC8 0, 0, 0, 0, 0, 0, 0, 0, 0, 0, 0, 0, 0, 0, 0, 0
   \              000000000000
   \              00000000    
   \   00003A21   000000000000       DC8 0, 0, 0, 0, 0, 0, 0, 0, 0, 0, 0, 0, 0, 0, 0, 0
   \              000000000000
   \              00000000    
   \   00003A31   000000000000       DC8 0, 0, 0, 0, 0, 0, 0, 0, 0, 0, 0, 0, 0, 0, 0, 0
   \              000000000000
   \              00000000    
   \   00003A41   000000000000       DC8 0, 0, 0, 0, 0, 0, 0, 0, 0, 0, 0, 0, 0, 0, 0, 0
   \              000000000000
   \              00000000    
   \   00003A51   000000000000       DC8 0, 0, 0, 0, 0, 0, 0, 0, 0, 0, 0, 0, 0, 0, 0, 0
   \              000000000000
   \              00000000    
   \   00003A61   000000000000       DC8 0, 0, 0, 0, 0, 0, 0, 0, 0, 0, 0, 0, 0, 0, 0, 0
   \              000000000000
   \              00000000    
   \   00003A71   000000000000       DC8 0, 0, 0, 0, 0, 0, 0, 0, 0, 0, 0, 0, 0, 0, 0, 0
   \              000000000000
   \              00000000    
   \   00003A81   000000000000       DC8 0, 0, 0, 0, 0, 0, 0, 0, 0, 0, 0, 0, 0, 0, 0, 0
   \              000000000000
   \              00000000    
   \   00003A91   000000000000       DC8 0, 0, 0, 0, 0, 0, 0, 0, 0, 0, 0, 0, 0, 0, 0, 0
   \              000000000000
   \              00000000    
   \   00003AA1   000000000000       DC8 0, 0, 0, 0, 0, 0, 0, 0, 0, 0, 0, 0, 0, 0, 0, 0
   \              000000000000
   \              00000000    
   \   00003AB1   000000000000       DC8 0, 0, 0, 0, 0, 0, 0, 0, 0, 0, 0, 0, 0, 0, 0, 0
   \              000000000000
   \              00000000    
   \   00003AC1   000000000000       DC8 0, 0, 0, 0, 0, 0, 0, 0, 0, 0, 0, 0, 0, 0, 0, 0
   \              000000000000
   \              00000000    
   \   00003AD1   000000000000       DC8 0, 0, 0, 0, 0, 0, 0, 0, 0, 0, 0, 0, 0, 0, 0, 0
   \              000000000000
   \              00000000    
   \   00003AE1   000000000000       DC8 0, 0, 0, 0, 0, 0, 0, 0, 0, 0, 0, 0, 0, 0, 0, 0
   \              000000000000
   \              00000000    
   \   00003AF1   000000000000       DC8 0, 0, 0, 0, 0, 0, 0, 0, 0, 0, 0, 0, 0, 0, 0, 0
   \              000000000000
   \              00000000    
   \   00003B01   000000000000       DC8 0, 0, 0, 0, 0, 0, 0, 0, 0, 0, 0, 0, 0, 0, 0, 0
   \              000000000000
   \              00000000    
   \   00003B11   000000000000       DC8 0, 0, 0, 0, 0, 0, 0, 0, 0, 0, 0, 0, 0, 0, 0, 0
   \              000000000000
   \              00000000    
   \   00003B21   000000000000       DC8 0, 0, 0, 0, 0, 0, 0, 0, 0, 0, 0, 0, 0, 0, 0, 0
   \              000000000000
   \              00000000    
   \   00003B31   000000000000       DC8 0, 0, 0, 0, 0, 0, 0, 0, 0, 0, 0, 0, 0, 0, 0, 0
   \              000000000000
   \              00000000    
   \   00003B41   000000000000       DC8 0, 0, 0, 0, 0, 0, 0, 0, 0, 0, 0, 0, 0, 0, 0, 0
   \              000000000000
   \              00000000    
   \   00003B51   000000000000       DC8 0, 0, 0, 0, 0, 0, 0, 0, 0, 0, 0, 0, 0, 0, 0, 0
   \              000000000000
   \              00000000    
   \   00003B61   000000000000       DC8 0, 0, 0, 0, 0, 0, 0, 0, 0, 0, 0, 0, 0, 0, 0, 0
   \              000000000000
   \              00000000    
   \   00003B71   000000000000       DC8 0, 0, 0, 0, 0, 0, 0, 0, 0, 0, 0, 0, 0, 0, 0, 0
   \              000000000000
   \              00000000    
   \   00003B81   000000000000       DC8 0, 0, 0, 0, 0, 0, 0, 0, 0, 0, 0, 0, 0, 0, 0, 0
   \              000000000000
   \              00000000    
   \   00003B91   000000000000       DC8 0, 0, 0, 0, 0, 0, 0, 0, 0, 0, 0, 0, 0, 0, 0, 0
   \              000000000000
   \              00000000    
   \   00003BA1   000000000000       DC8 0, 0, 0, 0, 0, 0, 0, 0, 0, 0, 0, 0, 0, 0, 0, 0
   \              000000000000
   \              00000000    
   \   00003BB1   000000000000       DC8 0, 0, 0, 0, 0, 0, 0, 0, 0, 0, 0, 0, 0, 0, 0, 0
   \              000000000000
   \              00000000    
   \   00003BC1   000000000000       DC8 0, 0, 0, 0, 0, 0, 0, 0, 0, 0, 0, 0, 0, 0, 0, 0
   \              000000000000
   \              00000000    
   \   00003BD1   000000000000       DC8 0, 0, 0, 0, 0, 0, 0, 0, 0, 0, 0, 0, 0, 0, 0, 0
   \              000000000000
   \              00000000    
   \   00003BE1   000000000000       DC8 0, 0, 0, 0, 0, 0, 0, 0, 0, 0, 0, 0, 0, 0, 0, 0
   \              000000000000
   \              00000000    
   \   00003BF1   000000000000       DC8 0, 0, 0, 0, 0, 0, 0, 0, 0, 0, 0, 0, 0, 0, 0, 0
   \              000000000000
   \              00000000    
   \   00003C01   000000000000       DC8 0, 0, 0, 0, 0, 0, 0, 0, 0, 0, 0, 0, 0, 0, 0, 0
   \              000000000000
   \              00000000    
   \   00003C11   000000000000       DC8 0, 0, 0, 0, 0, 0, 0, 0, 0, 0, 0, 0, 0, 0, 0, 0
   \              000000000000
   \              00000000    
   \   00003C21   000000000000       DC8 0, 0, 0, 0, 0, 0, 0, 0, 0, 0, 0, 0, 0, 0, 0, 0
   \              000000000000
   \              00000000    
   \   00003C31   000000000000       DC8 0, 0, 0, 0, 0, 0, 0, 0, 0, 0, 0, 0, 0, 0, 0, 0
   \              000000000000
   \              00000000    
   \   00003C41   000000000000       DC8 0, 0, 0, 0, 0, 0, 0, 0, 0, 0, 0, 0, 0, 0, 0, 0
   \              000000000000
   \              00000000    
   \   00003C51   000000000000       DC8 0, 0, 0, 0, 0, 0, 0, 0, 0, 0, 0, 0, 0, 0, 0, 0
   \              000000000000
   \              00000000    
   \   00003C61   000000000000       DC8 0, 0, 0, 0, 0, 0, 0, 0, 0, 0, 0, 0, 0, 0, 0, 0
   \              000000000000
   \              00000000    
   \   00003C71   000000000000       DC8 0, 0, 0, 0, 0, 0, 0, 0, 0, 0, 0, 0, 0, 0, 0, 0
   \              000000000000
   \              00000000    
   \   00003C81   000000000000       DC8 0, 0, 0, 0, 0, 0, 0, 0, 0, 0, 0, 0, 0, 0, 0, 0
   \              000000000000
   \              00000000    
   \   00003C91   000000000000       DC8 0, 0, 0, 0, 0, 0, 0, 0, 0, 0, 0, 0, 0, 0, 0, 0
   \              000000000000
   \              00000000    
   \   00003CA1   000000000000       DC8 0, 0, 0, 0, 0, 0, 0, 0, 0, 0, 0, 0, 0, 0, 0, 0
   \              000000000000
   \              00000000    
   \   00003CB1   000000000000       DC8 0, 0, 0, 0, 0, 0, 0, 0, 0, 0, 0, 0, 0, 0, 0, 0
   \              000000000000
   \              00000000    
   \   00003CC1   000000000000       DC8 0, 0, 0, 0, 0, 0, 0, 0, 0, 0, 0, 0, 0, 0, 0, 0
   \              000000000000
   \              00000000    
   \   00003CD1   000000000000       DC8 0, 0, 0, 0, 0, 0, 0, 0, 0, 0, 0, 0, 0, 0, 0, 0
   \              000000000000
   \              00000000    
   \   00003CE1   000000000000       DC8 0, 0, 0, 0, 0, 0, 0, 0, 0, 0, 0, 0, 0, 0, 0, 0
   \              000000000000
   \              00000000    
   \   00003CF1   000000000000       DC8 0, 0, 0, 0, 0, 0, 0, 0, 0, 0, 0, 0, 0, 0, 0, 0
   \              000000000000
   \              00000000    
   \   00003D01   000000000000       DC8 0, 0, 0, 0, 0, 0, 0, 0, 0, 0, 0, 0, 0, 0, 0, 0
   \              000000000000
   \              00000000    
   \   00003D11   000000000000       DC8 0, 0, 0, 0, 0, 0, 0, 0, 0, 0, 0, 0, 0, 0, 0, 0
   \              000000000000
   \              00000000    
   \   00003D21   000000000000       DC8 0, 0, 0, 0, 0, 0, 0, 0, 0, 0, 0, 0, 0, 0, 0, 0
   \              000000000000
   \              00000000    
   \   00003D31   000000000000       DC8 0, 0, 0, 0, 0, 0, 0, 0, 0, 0, 0, 0, 0, 0, 0, 0
   \              000000000000
   \              00000000    
   \   00003D41   000000000000       DC8 0, 0, 0, 0, 0, 0, 0, 0, 0, 0, 0, 0, 0, 0, 0, 0
   \              000000000000
   \              00000000    
   \   00003D51   000000000000       DC8 0, 0, 0, 0, 0, 0, 0, 0, 0, 0, 0, 0, 0, 0, 0, 0
   \              000000000000
   \              00000000    
   \   00003D61   000000000000       DC8 0, 0, 0, 0, 0, 0, 0, 0, 0, 0, 0, 0, 0, 0, 0, 0
   \              000000000000
   \              00000000    
   \   00003D71   000000000000       DC8 0, 0, 0, 0, 0, 0, 0, 0, 0, 0, 0, 0, 0, 0, 0, 0
   \              000000000000
   \              00000000    
   \   00003D81   000000000000       DC8 0, 0, 0, 0, 0, 0, 0, 0, 0, 0, 0, 0, 0, 0, 0, 0
   \              000000000000
   \              00000000    
   \   00003D91   000000000000       DC8 0, 0, 0, 0, 0, 0, 0, 0, 0, 0, 0, 0, 0, 0, 0, 0
   \              000000000000
   \              00000000    
   \   00003DA1   000000000000       DC8 0, 0, 0, 0, 0, 0, 0, 0, 0, 0, 0, 0, 0, 0, 0, 0
   \              000000000000
   \              00000000    
   \   00003DB1   000000000000       DC8 0, 0, 0, 0, 0, 0, 0, 0, 0, 0, 0, 0, 0, 0, 0, 0
   \              000000000000
   \              00000000    
   \   00003DC1   000000000000       DC8 0, 0, 0, 0, 0, 0, 0, 0, 0, 0, 0, 0, 0, 0, 0, 0
   \              000000000000
   \              00000000    
   \   00003DD1   000000000000       DC8 0, 0, 0, 0, 0, 0, 0, 0, 0, 0, 0, 0, 0, 0, 0, 0
   \              000000000000
   \              00000000    
   \   00003DE1   000000000000       DC8 0, 0, 0, 0, 0, 0, 0, 0, 0, 0, 0, 0, 0, 0, 0, 0
   \              000000000000
   \              00000000    
   \   00003DF1   000000000000       DC8 0, 0, 0, 0, 0, 0, 0, 0, 0, 0, 0, 0, 0, 0, 0, 0
   \              000000000000
   \              00000000    
   \   00003E01   000000000000       DC8 0, 0, 0, 0, 0, 0, 0, 0, 0, 0, 0, 0, 0, 0, 0, 0
   \              000000000000
   \              00000000    
   \   00003E11   000000000000       DC8 0, 0, 0, 0, 0, 0, 0, 0, 0, 0, 0, 0, 0, 0, 0, 0
   \              000000000000
   \              00000000    
   \   00003E21   000000000000       DC8 0, 0, 0, 0, 0, 0, 0, 0, 0, 0, 0, 0, 0, 0, 0, 0
   \              000000000000
   \              00000000    
   \   00003E31   000000000000       DC8 0, 0, 0, 0, 0, 0, 0, 0, 0, 0, 0, 0, 0, 0, 0, 0
   \              000000000000
   \              00000000    
   \   00003E41   000000000000       DC8 0, 0, 0, 0, 0, 0, 0, 0, 0, 0, 0, 0, 0, 0, 0, 0
   \              000000000000
   \              00000000    
   \   00003E51   000000000000       DC8 0, 0, 0, 0, 0, 0, 0, 0, 0, 0, 0, 0, 0, 0, 0, 0
   \              000000000000
   \              00000000    
   \   00003E61   000000000000       DC8 0, 0, 0, 0, 0, 0, 0, 0, 0, 0, 0, 0, 0, 0, 0, 0
   \              000000000000
   \              00000000    
   \   00003E71   000000000000       DC8 0, 0, 0, 0, 0, 0, 0, 0, 0, 0, 0, 0, 0, 0, 0, 0
   \              000000000000
   \              00000000    
   \   00003E81   000000000000       DC8 0, 0, 0, 0, 0, 0, 0, 0, 0, 0, 0, 0, 0, 0, 0, 0
   \              000000000000
   \              00000000    
   \   00003E91   000000000000       DC8 0, 0, 0, 0, 0, 0, 0, 0, 0, 0, 0, 0, 0, 0, 0, 0
   \              000000000000
   \              00000000    
   \   00003EA1   000000000000       DC8 0, 0, 0, 0, 0, 0, 0, 0, 0, 0, 0, 0, 0, 0, 0, 0
   \              000000000000
   \              00000000    
   \   00003EB1   000000000000       DC8 0, 0, 0, 0, 0, 0, 0, 0, 0, 0, 0, 0, 0, 0, 0, 0
   \              000000000000
   \              00000000    
   \   00003EC1   000000000000       DC8 0, 0, 0, 0, 0, 0, 0, 0, 0, 0, 0, 0, 0, 0, 0, 0
   \              000000000000
   \              00000000    
   \   00003ED1   000000000000       DC8 0, 0, 0, 0, 0, 0, 0, 0, 0, 0, 0, 0, 0, 0, 0, 0
   \              000000000000
   \              00000000    
   \   00003EE1   000000000000       DC8 0, 0, 0, 0, 0, 0, 0, 0, 0, 0, 0, 0, 0, 0, 0, 0
   \              000000000000
   \              00000000    
   \   00003EF1   000000000000       DC8 0, 0, 0, 0, 0, 0, 0, 0, 0, 0, 0, 0, 0, 0, 0, 0
   \              000000000000
   \              00000000    
   \   00003F01   000000000000       DC8 0, 0, 0, 0, 0, 0, 0, 0, 0, 0, 0, 0, 0, 0, 0, 0
   \              000000000000
   \              00000000    
   \   00003F11   000000000000       DC8 0, 0, 0, 0, 0, 0, 0, 0, 0, 0, 0, 0, 0, 0, 0, 0
   \              000000000000
   \              00000000    
   \   00003F21   000000000000       DC8 0, 0, 0, 0, 0, 0, 0, 0, 0, 0, 0, 0, 0, 0, 0, 0
   \              000000000000
   \              00000000    
   \   00003F31   000000000000       DC8 0, 0, 0, 0, 0, 0, 0, 0, 0, 0, 0, 0, 0, 0, 0, 0
   \              000000000000
   \              00000000    
   \   00003F41   000000000000       DC8 0, 0, 0, 0, 0, 0, 0, 0, 0, 0, 0, 0, 0, 0, 0, 0
   \              000000000000
   \              00000000    
   \   00003F51   000000000000       DC8 0, 0, 0, 0, 0, 0, 0, 0, 0, 0, 0, 0, 0, 0, 0, 0
   \              000000000000
   \              00000000    
   \   00003F61   000000000000       DC8 0, 0, 0, 0, 0, 0, 0, 0, 0, 0, 0, 0, 0, 0, 0, 0
   \              000000000000
   \              00000000    
   \   00003F71   000000000000       DC8 0, 0, 0, 0, 0, 0, 0, 0, 0, 0, 0, 0, 0, 0, 0, 0
   \              000000000000
   \              00000000    
   \   00003F81   000000000000       DC8 0, 0, 0, 0, 0, 0, 0, 0, 0, 0, 0, 0, 0, 0, 0, 0
   \              000000000000
   \              00000000    
   \   00003F91   000000000000       DC8 0, 0, 0, 0, 0, 0, 0, 0, 0, 0, 0, 0, 0, 0, 0, 0
   \              000000000000
   \              00000000    
   \   00003FA1   000000000000       DC8 0, 0, 0, 0, 0, 0, 0, 0, 0, 0, 0, 0, 0, 0, 0, 0
   \              000000000000
   \              00000000    
   \   00003FB1   000000000000       DC8 0, 0, 0, 0, 0, 0, 0, 0, 0, 0, 0, 0, 0, 0, 0, 0
   \              000000000000
   \              00000000    
   \   00003FC1   000000000000       DC8 0, 0, 0, 0, 0, 0, 0, 0, 0, 0, 0, 0, 0, 0, 0, 0
   \              000000000000
   \              00000000    
   \   00003FD1   000000000000       DC8 0, 0, 0, 0, 0, 0, 0, 0, 0, 0, 0, 0, 0, 0, 0, 0
   \              000000000000
   \              00000000    
   \   00003FE1   000000000000       DC8 0, 0, 0, 0, 0, 0, 0, 0, 0, 0, 0, 0, 0, 0, 0, 0
   \              000000000000
   \              00000000    
   \   00003FF1   000000000000       DC8 0, 0, 0, 0, 0, 0, 0, 0, 0, 0, 0, 0, 0, 0, 0, 0
   \              000000000000
   \              00000000    
   \   00004001   000000000000       DC8 0, 0, 0, 0, 0, 0, 0, 0, 0, 0, 0, 0, 0, 0, 0, 0
   \              000000000000
   \              00000000    
   \   00004011   000000000000       DC8 0, 0, 0, 0, 0, 0, 0, 0, 0, 0, 0, 0, 0, 0, 0, 0
   \              000000000000
   \              00000000    
   \   00004021   000000000000       DC8 0, 0, 0, 0, 0, 0, 0, 0, 0, 0, 0, 0, 0, 0, 0, 0
   \              000000000000
   \              00000000    
   \   00004031   000000000000       DC8 0, 0, 0, 0, 0, 0, 0, 0, 0, 0, 0, 0, 0, 0, 0, 0
   \              000000000000
   \              00000000    
   \   00004041   000000000000       DC8 0, 0, 0, 0, 0, 0, 0, 0, 0, 0, 0, 0, 0, 0, 0, 0
   \              000000000000
   \              00000000    
   \   00004051   000000000000       DC8 0, 0, 0, 0, 0, 0, 0, 0, 0, 0, 0, 0, 0, 0, 0, 0
   \              000000000000
   \              00000000    
   \   00004061   000000000000       DC8 0, 0, 0, 0, 0, 0, 0, 0, 0, 0, 0, 0, 0, 0, 0, 0
   \              000000000000
   \              00000000    
   \   00004071   000000000000       DC8 0, 0, 0, 0, 0, 0, 0, 0, 0, 0, 0, 0, 0, 0, 0, 0
   \              000000000000
   \              00000000    
   \   00004081   000000000000       DC8 0, 0, 0, 0, 0, 0, 0, 0, 0, 0, 0, 0, 0, 0, 0, 0
   \              000000000000
   \              00000000    
   \   00004091   000000000000       DC8 0, 0, 0, 0, 0, 0, 0, 0, 0, 0, 0, 0, 0, 0, 0, 0
   \              000000000000
   \              00000000    
   \   000040A1   000000000000       DC8 0, 0, 0, 0, 0, 0, 0, 0, 0, 0, 0, 0, 0, 0, 0, 0
   \              000000000000
   \              00000000    
   \   000040B1   000000000000       DC8 0, 0, 0, 0, 0, 0, 0, 0, 0, 0, 0, 0, 0, 0, 0, 0
   \              000000000000
   \              00000000    
   \   000040C1   000000000000       DC8 0, 0, 0, 0, 0, 0, 0, 0, 0, 0, 0, 0, 0, 0, 0, 0
   \              000000000000
   \              00000000    
   \   000040D1   000000000000       DC8 0, 0, 0, 0, 0, 0, 0, 0, 0, 0, 0, 0, 0, 0, 0, 0
   \              000000000000
   \              00000000    
   \   000040E1   000000000000       DC8 0, 0, 0, 0, 0, 0, 0, 0, 0, 0, 0, 0, 0, 0, 0, 0
   \              000000000000
   \              00000000    
   \   000040F1   000000000000       DC8 0, 0, 0, 0, 0, 0, 0, 0, 0, 0, 0, 0, 0, 0, 0, 0
   \              000000000000
   \              00000000    
   \   00004101   000000000000       DC8 0, 0, 0, 0, 0, 0, 0, 0, 0, 0, 0, 0, 0, 0, 0, 0
   \              000000000000
   \              00000000    
   \   00004111   000000000000       DC8 0, 0, 0, 0, 0, 0, 0, 0, 0, 0, 0, 0, 0, 0, 0, 0
   \              000000000000
   \              00000000    
   \   00004121   000000000000       DC8 0, 0, 0, 0, 0, 0, 0, 0, 0, 0, 0, 0, 0, 0, 0, 0
   \              000000000000
   \              00000000    
   \   00004131   000000000000       DC8 0, 0, 0, 0, 0, 0, 0, 0, 0, 0, 0, 0, 0, 0, 0, 0
   \              000000000000
   \              00000000    
   \   00004141   000000000000       DC8 0, 0, 0, 0, 0, 0, 0, 0, 0, 0, 0, 0, 0, 0, 0, 0
   \              000000000000
   \              00000000    
   \   00004151   000000000000       DC8 0, 0, 0, 0, 0, 0, 0, 0, 0, 0, 0, 0, 0, 0, 0, 0
   \              000000000000
   \              00000000    
   \   00004161   000000000000       DC8 0, 0, 0, 0, 0, 0, 0, 0, 0, 0, 0, 0, 0, 0, 0, 0
   \              000000000000
   \              00000000    
   \   00004171   000000000000       DC8 0, 0, 0, 0, 0, 0, 0, 0, 0, 0, 0, 0, 0, 0, 0, 0
   \              000000000000
   \              00000000    
   \   00004181   000000000000       DC8 0, 0, 0, 0, 0, 0, 0, 0, 0, 0, 0, 0, 0, 0, 0, 0
   \              000000000000
   \              00000000    
   \   00004191   000000000000       DC8 0, 0, 0, 0, 0, 0, 0, 0, 0, 0, 0, 0, 0, 0, 0, 0
   \              000000000000
   \              00000000    
   \   000041A1   000000000000       DC8 0, 0, 0, 0, 0, 0, 0, 0, 0, 0, 0, 0, 0, 0, 0, 0
   \              000000000000
   \              00000000    
   \   000041B1   000000000000       DC8 0, 0, 0, 0, 0, 0, 0, 0, 0, 0, 0, 0, 0, 0, 0, 0
   \              000000000000
   \              00000000    
   \   000041C1   000000000000       DC8 0, 0, 0, 0, 0, 0, 0, 0, 0, 0, 0, 0, 0, 0, 0, 0
   \              000000000000
   \              00000000    
   \   000041D1   000000000000       DC8 0, 0, 0, 0, 0, 0, 0, 0, 0, 0, 0, 0, 0, 0, 0, 0
   \              000000000000
   \              00000000    
   \   000041E1   000000000000       DC8 0, 0, 0, 0, 0, 0, 0, 0, 0, 0, 0, 0, 0, 0, 0, 0
   \              000000000000
   \              00000000    
   \   000041F1   000000000000       DC8 0, 0, 0, 0, 0, 0, 0, 0, 0, 0, 0, 0, 0, 0, 0, 0
   \              000000000000
   \              00000000    
   \   00004201   000000000000       DC8 0, 0, 0, 0, 0, 0, 0, 0, 0, 0, 0, 0, 0, 0, 0, 0
   \              000000000000
   \              00000000    
   \   00004211   000000000000       DC8 0, 0, 0, 0, 0, 0, 0, 0, 0, 0, 0, 0, 0, 0, 0, 0
   \              000000000000
   \              00000000    
   \   00004221   000000000000       DC8 0, 0, 0, 0, 0, 0, 0, 0, 0, 0, 0, 0, 0, 0, 0, 0
   \              000000000000
   \              00000000    
   \   00004231   000000000000       DC8 0, 0, 0, 0, 0, 0, 0, 0, 0, 0, 0, 0, 0, 0, 0, 0
   \              000000000000
   \              00000000    
   \   00004241   000000000000       DC8 0, 0, 0, 0, 0, 0, 0, 0, 0, 0, 0, 0, 0, 0, 0, 0
   \              000000000000
   \              00000000    
   \   00004251   000000000000       DC8 0, 0, 0, 0, 0, 0, 0, 0, 0, 0, 0, 0, 0, 0, 0, 0
   \              000000000000
   \              00000000    
   \   00004261   000000000000       DC8 0, 0, 0, 0, 0, 0, 0, 0, 0, 0, 0, 0, 0, 0, 0, 0
   \              000000000000
   \              00000000    
   \   00004271   000000000000       DC8 0, 0, 0, 0, 0, 0, 0, 0, 0, 0, 0, 0, 0, 0, 0, 0
   \              000000000000
   \              00000000    
   \   00004281   000000000000       DC8 0, 0, 0, 0, 0, 0, 0, 0, 0, 0, 0, 0, 0, 0, 0, 0
   \              000000000000
   \              00000000    
   \   00004291   000000000000       DC8 0, 0, 0, 0, 0, 0, 0, 0, 0, 0, 0, 0, 0, 0, 0, 0
   \              000000000000
   \              00000000    
   \   000042A1   000000000000       DC8 0, 0, 0, 0, 0, 0, 0, 0, 0, 0, 0, 0, 0, 0, 0, 0
   \              000000000000
   \              00000000    
   \   000042B1   000000000000       DC8 0, 0, 0, 0, 0, 0, 0, 0, 0, 0, 0, 0, 0, 0, 0, 0
   \              000000000000
   \              00000000    
   \   000042C1   000000000000       DC8 0, 0, 0, 0, 0, 0, 0, 0, 0, 0, 0, 0, 0, 0, 0, 0
   \              000000000000
   \              00000000    
   \   000042D1   000000000000       DC8 0, 0, 0, 0, 0, 0, 0, 0, 0, 0, 0, 0, 0, 0, 0, 0
   \              000000000000
   \              00000000    
   \   000042E1   000000000000       DC8 0, 0, 0, 0, 0, 0, 0, 0, 0, 0, 0, 0, 0, 0, 0, 0
   \              000000000000
   \              00000000    
   \   000042F1   000000000000       DC8 0, 0, 0, 0, 0, 0, 0, 0, 0, 0, 0, 0, 0, 0, 0, 0
   \              000000000000
   \              00000000    
   \   00004301   000000000000       DC8 0, 0, 0, 0, 0, 0, 0, 0, 0, 0, 0, 0, 0, 0, 0, 0
   \              000000000000
   \              00000000    
   \   00004311   000000000000       DC8 0, 0, 0, 0, 0, 0, 0, 0, 0, 0, 0, 0, 0, 0, 0, 0
   \              000000000000
   \              00000000    
   \   00004321   000000000000       DC8 0, 0, 0, 0, 0, 0, 0, 0, 0, 0, 0, 0, 0, 0, 0, 0
   \              000000000000
   \              00000000    
   \   00004331   000000000000       DC8 0, 0, 0, 0, 0, 0, 0, 0, 0, 0, 0, 0, 0, 0, 0, 0
   \              000000000000
   \              00000000    
   \   00004341   000000000000       DC8 0, 0, 0, 0, 0, 0, 0, 0, 0, 0, 0, 0, 0, 0, 0, 0
   \              000000000000
   \              00000000    
   \   00004351   000000000000       DC8 0, 0, 0, 0, 0, 0, 0, 0, 0, 0, 0, 0, 0, 0, 0, 0
   \              000000000000
   \              00000000    
   \   00004361   000000000000       DC8 0, 0, 0, 0, 0, 0, 0, 0, 0, 0, 0, 0, 0, 0, 0, 0
   \              000000000000
   \              00000000    
   \   00004371   000000000000       DC8 0, 0, 0, 0, 0, 0, 0, 0, 0, 0, 0, 0, 0, 0, 0, 0
   \              000000000000
   \              00000000    
   \   00004381   000000000000       DC8 0, 0, 0, 0, 0, 0, 0, 0, 0, 0, 0, 0, 0, 0, 0, 0
   \              000000000000
   \              00000000    
   \   00004391   000000000000       DC8 0, 0, 0, 0, 0, 0, 0, 0, 0, 0, 0, 0, 0, 0, 0, 0
   \              000000000000
   \              00000000    
   \   000043A1   000000000000       DC8 0, 0, 0, 0, 0, 0, 0, 0, 0, 0, 0, 0, 0, 0, 0, 0
   \              000000000000
   \              00000000    
   \   000043B1   000000000000       DC8 0, 0, 0, 0, 0, 0, 0, 0, 0, 0, 0, 0, 0, 0, 0, 0
   \              000000000000
   \              00000000    
   \   000043C1   000000000000       DC8 0, 0, 0, 0, 0, 0, 0, 0, 0, 0, 0, 0, 0, 0, 0, 0
   \              000000000000
   \              00000000    
   \   000043D1   000000000000       DC8 0, 0, 0, 0, 0, 0, 0, 0, 0, 0, 0, 0, 0, 0, 0, 0
   \              000000000000
   \              00000000    
   \   000043E1   000000000000       DC8 0, 0, 0, 0, 0, 0, 0, 0, 0, 0, 0, 0, 0, 0, 0, 0
   \              000000000000
   \              00000000    
   \   000043F1   000000000000       DC8 0, 0, 0, 0, 0, 0, 0, 0, 0, 0, 0, 0, 0, 0, 0, 0
   \              000000000000
   \              00000000    
   \   00004401   000000000000       DC8 0, 0, 0, 0, 0, 0, 0, 0, 0, 0, 0, 0, 0, 0, 0, 0
   \              000000000000
   \              00000000    
   \   00004411   000000000000       DC8 0, 0, 0, 0, 0, 0, 0, 0, 0, 0, 0, 0, 0, 0, 0, 0
   \              000000000000
   \              00000000    
   \   00004421   000000000000       DC8 0, 0, 0, 0, 0, 0, 0, 0, 0, 0, 0, 0, 0, 0, 0, 0
   \              000000000000
   \              00000000    
   \   00004431   000000000000       DC8 0, 0, 0, 0, 0, 0, 0, 0, 0, 0, 0, 0, 0, 0, 0, 0
   \              000000000000
   \              00000000    
   \   00004441   000000000000       DC8 0, 0, 0, 0, 0, 0, 0, 0, 0, 0, 0, 0, 0, 0, 0, 0
   \              000000000000
   \              00000000    
   \   00004451   000000000000       DC8 0, 0, 0, 0, 0, 0, 0, 0, 0, 0, 0, 0, 0, 0, 0, 0
   \              000000000000
   \              00000000    
   \   00004461   000000000000       DC8 0, 0, 0, 0, 0, 0, 0, 0, 0, 0, 0, 0, 0, 0, 0, 0
   \              000000000000
   \              00000000    
   \   00004471   000000000000       DC8 0, 0, 0, 0, 0, 0, 0, 0, 0, 0, 0, 0, 0, 0, 0, 0
   \              000000000000
   \              00000000    
   \   00004481   000000000000       DC8 0, 0, 0, 0, 0, 0, 0, 0, 0, 0, 0, 0, 0, 0, 0, 0
   \              000000000000
   \              00000000    
   \   00004491   000000000000       DC8 0, 0, 0, 0, 0, 0, 0, 0, 0, 0, 0, 0, 0, 0, 0, 0
   \              000000000000
   \              00000000    
   \   000044A1   000000000000       DC8 0, 0, 0, 0, 0, 0, 0, 0, 0, 0, 0, 0, 0, 0, 0, 0
   \              000000000000
   \              00000000    
   \   000044B1   000000000000       DC8 0, 0, 0, 0, 0, 0, 0, 0, 0, 0, 0, 0, 0, 0, 0, 0
   \              000000000000
   \              00000000    
   \   000044C1   000000000000       DC8 0, 0, 0, 0, 0, 0, 0, 0, 0, 0, 0, 0, 0, 0, 0, 0
   \              000000000000
   \              00000000    
   \   000044D1   000000000000       DC8 0, 0, 0, 0, 0, 0, 0, 0, 0, 0, 0, 0, 0, 0, 0, 0
   \              000000000000
   \              00000000    
   \   000044E1   000000000000       DC8 0, 0, 0, 0, 0, 0, 0, 0, 0, 0, 0, 0, 0, 0, 0, 0
   \              000000000000
   \              00000000    
   \   000044F1   000000000000       DC8 0, 0, 0, 0, 0, 0, 0, 0, 0, 0, 0, 0, 0, 0, 0, 0
   \              000000000000
   \              00000000    
   \   00004501   000000000000       DC8 0, 0, 0, 0, 0, 0, 0, 0, 0, 0, 0, 0, 0, 0, 0, 0
   \              000000000000
   \              00000000    
   \   00004511   000000000000       DC8 0, 0, 0, 0, 0, 0, 0, 0, 0, 0, 0, 0, 0, 0, 0, 0
   \              000000000000
   \              00000000    
   \   00004521   000000000000       DC8 0, 0, 0, 0, 0, 0, 0, 0, 0, 0, 0, 0, 0, 0, 0, 0
   \              000000000000
   \              00000000    
   \   00004531   000000000000       DC8 0, 0, 0, 0, 0, 0, 0, 0, 0, 0, 0, 0, 0, 0, 0, 0
   \              000000000000
   \              00000000    
   \   00004541   000000000000       DC8 0, 0, 0, 0, 0, 0, 0, 0, 0, 0, 0, 0, 0, 0, 0, 0
   \              000000000000
   \              00000000    
   \   00004551   000000000000       DC8 0, 0, 0, 0, 0, 0, 0, 0, 0, 0, 0, 0, 0, 0, 0, 0
   \              000000000000
   \              00000000    
   \   00004561   000000000000       DC8 0, 0, 0, 0, 0, 0, 0, 0, 0, 0, 0, 0, 0, 0, 0, 0
   \              000000000000
   \              00000000    
   \   00004571   000000000000       DC8 0, 0, 0, 0, 0, 0, 0, 0, 0, 0, 0, 0, 0, 0, 0, 0
   \              000000000000
   \              00000000    
   \   00004581   000000000000       DC8 0, 0, 0, 0, 0, 0, 0, 0, 0, 0, 0, 0, 0, 0, 0, 0
   \              000000000000
   \              00000000    
   \   00004591   000000000000       DC8 0, 0, 0, 0, 0, 0, 0, 0, 0, 0, 0, 0, 0, 0, 0, 0
   \              000000000000
   \              00000000    
   \   000045A1   000000000000       DC8 0, 0, 0, 0, 0, 0, 0, 0, 0, 0, 0, 0, 0, 0, 0, 0
   \              000000000000
   \              00000000    
   \   000045B1   000000000000       DC8 0, 0, 0, 0, 0, 0, 0, 0, 0, 0, 0, 0, 0, 0, 0, 0
   \              000000000000
   \              00000000    
   \   000045C1   000000000000       DC8 0, 0, 0, 0, 0, 0, 0, 0, 0, 0, 0, 0, 0, 0, 0, 0
   \              000000000000
   \              00000000    
   \   000045D1   000000000000       DC8 0, 0, 0, 0, 0, 0, 0, 0, 0, 0, 0, 0, 0, 0, 0, 0
   \              000000000000
   \              00000000    
   \   000045E1   000000000000       DC8 0, 0, 0, 0, 0, 0, 0, 0, 0, 0, 0, 0, 0, 0, 0, 0
   \              000000000000
   \              00000000    
   \   000045F1   000000000000       DC8 0, 0, 0, 0, 0, 0, 0, 0, 0, 0, 0, 0, 0, 0, 0, 0
   \              000000000000
   \              00000000    
   \   00004601   000000000000       DC8 0, 0, 0, 0, 0, 0, 0, 0, 0, 0, 0, 0, 0, 0, 0, 0
   \              000000000000
   \              00000000    
   \   00004611   000000000000       DC8 0, 0, 0, 0, 0, 0, 0, 0, 0, 0, 0, 0, 0, 0, 0, 0
   \              000000000000
   \              00000000    
   \   00004621   000000000000       DC8 0, 0, 0, 0, 0, 0, 0, 0, 0, 0, 0, 0, 0, 0, 0, 0
   \              000000000000
   \              00000000    
   \   00004631   000000000000       DC8 0, 0, 0, 0, 0, 0, 0, 0, 0, 0, 0, 0, 0, 0, 0, 0
   \              000000000000
   \              00000000    
   \   00004641   000000000000       DC8 0, 0, 0, 0, 0, 0, 0, 0, 0, 0, 0, 0, 0, 0, 0, 0
   \              000000000000
   \              00000000    
   \   00004651   000000000000       DC8 0, 0, 0, 0, 0, 0, 0, 0, 0, 0, 0, 0, 0, 0, 0, 0
   \              000000000000
   \              00000000    
   \   00004661   000000000000       DC8 0, 0, 0, 0, 0, 0, 0, 0, 0, 0, 0, 0, 0, 0, 0, 0
   \              000000000000
   \              00000000    
   \   00004671   000000000000       DC8 0, 0, 0, 0, 0, 0, 0, 0, 0, 0, 0, 0, 0, 0, 0, 0
   \              000000000000
   \              00000000    
   \   00004681   000000000000       DC8 0, 0, 0, 0, 0, 0, 0, 0, 0, 0, 0, 0, 0, 0, 0, 0
   \              000000000000
   \              00000000    
   \   00004691   000000000000       DC8 0, 0, 0, 0, 0, 0, 0, 0, 0, 0, 0, 0, 0, 0, 0, 0
   \              000000000000
   \              00000000    
   \   000046A1   000000000000       DC8 0, 0, 0, 0, 0, 0, 0, 0, 0, 0, 0, 0, 0, 0, 0, 0
   \              000000000000
   \              00000000    
   \   000046B1   000000000000       DC8 0, 0, 0, 0, 0, 0, 0, 0, 0, 0, 0, 0, 0, 0, 0, 0
   \              000000000000
   \              00000000    
   \   000046C1   000000000000       DC8 0, 0, 0, 0, 0, 0, 0, 0, 0, 0, 0, 0, 0, 0, 0, 0
   \              000000000000
   \              00000000    
   \   000046D1   000000000000       DC8 0, 0, 0, 0, 0, 0, 0, 0, 0, 0, 0, 0, 0, 0, 0, 0
   \              000000000000
   \              00000000    
   \   000046E1   000000000000       DC8 0, 0, 0, 0, 0, 0, 0, 0, 0, 0, 0, 0, 0, 0, 0, 0
   \              000000000000
   \              00000000    
   \   000046F1   000000000000       DC8 0, 0, 0, 0, 0, 0, 0, 0, 0, 0, 0, 0, 0, 0, 0, 0
   \              000000000000
   \              00000000    
   \   00004701   000000000000       DC8 0, 0, 0, 0, 0, 0, 0, 0, 0, 0, 0, 0, 0, 0, 0, 0
   \              000000000000
   \              00000000    
   \   00004711   000000000000       DC8 0, 0, 0, 0, 0, 0, 0, 0, 0, 0, 0, 0, 0, 0, 0, 0
   \              000000000000
   \              00000000    
   \   00004721   000000000000       DC8 0, 0, 0, 0, 0, 0, 0, 0, 0, 0, 0, 0, 0, 0, 0, 0
   \              000000000000
   \              00000000    
   \   00004731   000000000000       DC8 0, 0, 0, 0, 0, 0, 0, 0, 0, 0, 0, 0, 0, 0, 0, 0
   \              000000000000
   \              00000000    
   \   00004741   000000000000       DC8 0, 0, 0, 0, 0, 0, 0, 0, 0, 0, 0, 0, 0, 0, 0, 0
   \              000000000000
   \              00000000    
   \   00004751   000000000000       DC8 0, 0, 0, 0, 0, 0, 0, 0, 0, 0, 0, 0, 0, 0, 0, 0
   \              000000000000
   \              00000000    
   \   00004761   000000000000       DC8 0, 0, 0, 0, 0, 0, 0, 0, 0, 0, 0, 0, 0, 0, 0, 0
   \              000000000000
   \              00000000    
   \   00004771   000000000000       DC8 0, 0, 0, 0, 0, 0, 0, 0, 0, 0, 0, 0, 0, 0, 0, 0
   \              000000000000
   \              00000000    
   \   00004781   000000000000       DC8 0, 0, 0, 0, 0, 0, 0, 0, 0, 0, 0, 0, 0, 0, 0, 0
   \              000000000000
   \              00000000    
   \   00004791   000000000000       DC8 0, 0, 0, 0, 0, 0, 0, 0, 0, 0, 0, 0, 0, 0, 0, 0
   \              000000000000
   \              00000000    
   \   000047A1   000000000000       DC8 0, 0, 0, 0, 0, 0, 0, 0, 0, 0, 0, 0, 0, 0, 0, 0
   \              000000000000
   \              00000000    
   \   000047B1   000000000000       DC8 0, 0, 0, 0, 0, 0, 0, 0, 0, 0, 0, 0, 0, 0, 0, 0
   \              000000000000
   \              00000000    
   \   000047C1   000000000000       DC8 0, 0, 0, 0, 0, 0, 0, 0, 0, 0, 0, 0, 0, 0, 0, 0
   \              000000000000
   \              00000000    
   \   000047D1   000000000000       DC8 0, 0, 0, 0, 0, 0, 0, 0, 0, 0, 0, 0, 0, 0, 0, 0
   \              000000000000
   \              00000000    
   \   000047E1   000000000000       DC8 0, 0, 0, 0, 0, 0, 0, 0, 0, 0, 0, 0, 0, 0, 0, 0
   \              000000000000
   \              00000000    
   \   000047F1   000000000000       DC8 0, 0, 0, 0, 0, 0, 0, 0, 0, 0, 0, 0, 0, 0, 0, 0
   \              000000000000
   \              00000000    
   \   00004801   000000000000       DC8 0, 0, 0, 0, 0, 0, 0, 0, 0, 0, 0, 0, 0, 0, 0, 0
   \              000000000000
   \              00000000    
   \   00004811   000000000000       DC8 0, 0, 0, 0, 0, 0, 0, 0, 0, 0, 0, 0, 0, 0, 0, 0
   \              000000000000
   \              00000000    
   \   00004821   000000000000       DC8 0, 0, 0, 0, 0, 0, 0, 0, 0, 0, 0, 0, 0, 0, 0, 0
   \              000000000000
   \              00000000    
   \   00004831   000000000000       DC8 0, 0, 0, 0, 0, 0, 0, 0, 0, 0, 0, 0, 0, 0, 0, 0
   \              000000000000
   \              00000000    
   \   00004841   000000000000       DC8 0, 0, 0, 0, 0, 0, 0, 0, 0, 0, 0, 0, 0, 0, 0, 0
   \              000000000000
   \              00000000    
   \   00004851   000000000000       DC8 0, 0, 0, 0, 0, 0, 0, 0, 0, 0, 0, 0, 0, 0, 0, 0
   \              000000000000
   \              00000000    
   \   00004861   000000000000       DC8 0, 0, 0, 0, 0, 0, 0, 0, 0, 0, 0, 0, 0, 0, 0, 0
   \              000000000000
   \              00000000    
   \   00004871   000000000000       DC8 0, 0, 0, 0, 0, 0, 0, 0, 0, 0, 0, 0, 0, 0, 0, 0
   \              000000000000
   \              00000000    
   \   00004881   000000000000       DC8 0, 0, 0, 0, 0, 0, 0, 0, 0, 0, 0, 0, 0, 0, 0, 0
   \              000000000000
   \              00000000    
   \   00004891   000000000000       DC8 0, 0, 0, 0, 0, 0, 0, 0, 0, 0, 0, 0, 0, 0, 0, 0
   \              000000000000
   \              00000000    
   \   000048A1   000000000000       DC8 0, 0, 0, 0, 0, 0, 0, 0, 0, 0, 0, 0, 0, 0, 0, 0
   \              000000000000
   \              00000000    
   \   000048B1   000000000000       DC8 0, 0, 0, 0, 0, 0, 0, 0, 0, 0, 0, 0, 0, 0, 0, 0
   \              000000000000
   \              00000000    
   \   000048C1   000000000000       DC8 0, 0, 0, 0, 0, 0, 0, 0, 0, 0, 0, 0, 0, 0, 0, 0
   \              000000000000
   \              00000000    
   \   000048D1   000000000000       DC8 0, 0, 0, 0, 0, 0, 0, 0, 0, 0, 0, 0, 0, 0, 0, 0
   \              000000000000
   \              00000000    
   \   000048E1   000000000000       DC8 0, 0, 0, 0, 0, 0, 0, 0, 0, 0, 0, 0, 0, 0, 0, 0
   \              000000000000
   \              00000000    
   \   000048F1   000000000000       DC8 0, 0, 0, 0, 0, 0, 0, 0, 0, 0, 0, 0, 0, 0, 0, 0
   \              000000000000
   \              00000000    
   \   00004901   000000000000       DC8 0, 0, 0, 0, 0, 0, 0, 0, 0, 0, 0, 0, 0, 0, 0, 0
   \              000000000000
   \              00000000    
   \   00004911   000000000000       DC8 0, 0, 0, 0, 0, 0, 0, 0, 0, 0, 0, 0, 0, 0, 0, 0
   \              000000000000
   \              00000000    
   \   00004921   000000000000       DC8 0, 0, 0, 0, 0, 0, 0, 0, 0, 0, 0, 0, 0, 0, 0, 0
   \              000000000000
   \              00000000    
   \   00004931   000000000000       DC8 0, 0, 0, 0, 0, 0, 0, 0, 0, 0, 0, 0, 0, 0, 0, 0
   \              000000000000
   \              00000000    
   \   00004941   000000000000       DC8 0, 0, 0, 0, 0, 0, 0, 0, 0, 0, 0, 0, 0, 0, 0, 0
   \              000000000000
   \              00000000    
   \   00004951   000000000000       DC8 0, 0, 0, 0, 0, 0, 0, 0, 0, 0, 0, 0, 0, 0, 0, 0
   \              000000000000
   \              00000000    
   \   00004961   000000000000       DC8 0, 0, 0, 0, 0, 0, 0, 0, 0, 0, 0, 0, 0, 0, 0, 0
   \              000000000000
   \              00000000    
   \   00004971   000000000000       DC8 0, 0, 0, 0, 0, 0, 0, 0, 0, 0, 0, 0, 0, 0, 0, 0
   \              000000000000
   \              00000000    
   \   00004981   000000000000       DC8 0, 0, 0, 0, 0, 0, 0, 0, 0, 0, 0, 0, 0, 0, 0, 0
   \              000000000000
   \              00000000    
   \   00004991   000000000000       DC8 0, 0, 0, 0, 0, 0, 0, 0, 0, 0, 0, 0, 0, 0, 0, 0
   \              000000000000
   \              00000000    
   \   000049A1   000000000000       DC8 0, 0, 0, 0, 0, 0, 0, 0, 0, 0, 0, 0, 0, 0, 0, 0
   \              000000000000
   \              00000000    
   \   000049B1   000000000000       DC8 0, 0, 0, 0, 0, 0, 0, 0, 0, 0, 0, 0, 0, 0, 0, 0
   \              000000000000
   \              00000000    
   \   000049C1   000000000000       DC8 0, 0, 0, 0, 0, 0, 0, 0, 0, 0, 0, 0, 0, 0, 0, 0
   \              000000000000
   \              00000000    
   \   000049D1   000000000000       DC8 0, 0, 0, 0, 0, 0, 0, 0, 0, 0, 0, 0, 0, 0, 0, 0
   \              000000000000
   \              00000000    
   \   000049E1   000000000000       DC8 0, 0, 0, 0, 0, 0, 0, 0, 0, 0, 0, 0, 0, 0, 0, 0
   \              000000000000
   \              00000000    
   \   000049F1   000000000000       DC8 0, 0, 0, 0, 0, 0, 0, 0, 0, 0, 0, 0, 0, 0, 0, 0
   \              000000000000
   \              00000000    
   \   00004A01   000000000000       DC8 0, 0, 0, 0, 0, 0, 0, 0, 0, 0, 0, 0, 0, 0, 0, 0
   \              000000000000
   \              00000000    
   \   00004A11   000000000000       DC8 0, 0, 0, 0, 0, 0, 0, 0, 0, 0, 0, 0, 0, 0, 0, 0
   \              000000000000
   \              00000000    
   \   00004A21   000000000000       DC8 0, 0, 0, 0, 0, 0, 0, 0, 0, 0, 0, 0, 0, 0, 0, 0
   \              000000000000
   \              00000000    
   \   00004A31   000000000000       DC8 0, 0, 0, 0, 0, 0, 0, 0, 0, 0, 0, 0, 0, 0, 0, 0
   \              000000000000
   \              00000000    
   \   00004A41   000000000000       DC8 0, 0, 0, 0, 0, 0, 0, 0, 0, 0, 0, 0, 0, 0, 0, 0
   \              000000000000
   \              00000000    
   \   00004A51   000000000000       DC8 0, 0, 0, 0, 0, 0, 0, 0, 0, 0, 0, 0, 0, 0, 0, 0
   \              000000000000
   \              00000000    
   \   00004A61   000000000000       DC8 0, 0, 0, 0, 0, 0, 0, 0, 0, 0, 0, 0, 0, 0, 0, 0
   \              000000000000
   \              00000000    
   \   00004A71   000000000000       DC8 0, 0, 0, 0, 0, 0, 0, 0, 0, 0, 0, 0, 0, 0, 0, 0
   \              000000000000
   \              00000000    
   \   00004A81   000000000000       DC8 0, 0, 0, 0, 0, 0, 0, 0, 0, 0, 0, 0, 0, 0, 0, 0
   \              000000000000
   \              00000000    
   \   00004A91   000000000000       DC8 0, 0, 0, 0, 0, 0, 0, 0, 0, 0, 0, 0, 0, 0, 0, 0
   \              000000000000
   \              00000000    
   \   00004AA1   000000000000       DC8 0, 0, 0, 0, 0, 0, 0, 0, 0, 0, 0, 0, 0, 0, 0, 0
   \              000000000000
   \              00000000    
   \   00004AB1   000000000000       DC8 0, 0, 0, 0, 0, 0, 0, 0, 0, 0, 0, 0, 0, 0, 0, 0
   \              000000000000
   \              00000000    
   \   00004AC1   000000000000       DC8 0, 0, 0, 0, 0, 0, 0, 0, 0, 0, 0, 0, 0, 0, 0, 0
   \              000000000000
   \              00000000    
   \   00004AD1   000000000000       DC8 0, 0, 0, 0, 0, 0, 0, 0, 0, 0, 0, 0, 0, 0, 0, 0
   \              000000000000
   \              00000000    
   \   00004AE1   000000000000       DC8 0, 0, 0, 0, 0, 0, 0, 0, 0, 0, 0, 0, 0, 0, 0, 0
   \              000000000000
   \              00000000    
   \   00004AF1   000000000000       DC8 0, 0, 0, 0, 0, 0, 0, 0, 0, 0, 0, 0, 0, 0, 0, 0
   \              000000000000
   \              00000000    
   \   00004B01   000000000000       DC8 0, 0, 0, 0, 0, 0, 0, 0, 0, 0, 0, 0, 0, 0, 0, 0
   \              000000000000
   \              00000000    
   \   00004B11   000000000000       DC8 0, 0, 0, 0, 0, 0, 0, 0, 0, 0, 0, 0, 0, 0, 0, 0
   \              000000000000
   \              00000000    
   \   00004B21   000000000000       DC8 0, 0, 0, 0, 0, 0, 0, 0, 0, 0, 0, 0, 0, 0, 0, 0
   \              000000000000
   \              00000000    
   \   00004B31   000000000000       DC8 0, 0, 0, 0, 0, 0, 0, 0, 0, 0, 0, 0, 0, 0, 0, 0
   \              000000000000
   \              00000000    
   \   00004B41   000000000000       DC8 0, 0, 0, 0, 0, 0, 0, 0, 0, 0, 0, 0, 0, 0, 0, 0
   \              000000000000
   \              00000000    
   \   00004B51   000000000000       DC8 0, 0, 0, 0, 0, 0, 0, 0, 0, 0, 0, 0, 0, 0, 0, 0
   \              000000000000
   \              00000000    
   \   00004B61   000000000000       DC8 0, 0, 0, 0, 0, 0, 0, 0, 0, 0, 0, 0, 0, 0, 0, 0
   \              000000000000
   \              00000000    
   \   00004B71   000000000000       DC8 0, 0, 0, 0, 0, 0, 0, 0, 0, 0, 0, 0, 0, 0, 0, 0
   \              000000000000
   \              00000000    
   \   00004B81   000000000000       DC8 0, 0, 0, 0, 0, 0, 0, 0, 0, 0, 0, 0, 0, 0, 0, 0
   \              000000000000
   \              00000000    
   \   00004B91   000000000000       DC8 0, 0, 0, 0, 0, 0, 0, 0, 0, 0, 0, 0, 0, 0, 0, 0
   \              000000000000
   \              00000000    
   \   00004BA1   000000000000       DC8 0, 0, 0, 0, 0, 0, 0, 0, 0, 0, 0, 0, 0, 0, 0, 0
   \              000000000000
   \              00000000    
   \   00004BB1   000000000000       DC8 0, 0, 0, 0, 0, 0, 0, 0, 0, 0, 0, 0, 0, 0, 0, 0
   \              000000000000
   \              00000000    
   \   00004BC1   000000000000       DC8 0, 0, 0, 0, 0, 0, 0, 0, 0, 0, 0, 0, 0, 0, 0, 0
   \              000000000000
   \              00000000    
   \   00004BD1   000000000000       DC8 0, 0, 0, 0, 0, 0, 0, 0, 0, 0, 0, 0, 0, 0, 0, 0
   \              000000000000
   \              00000000    
   \   00004BE1   000000000000       DC8 0, 0, 0, 0, 0, 0, 0, 0, 0, 0, 0, 0, 0, 0, 0, 0
   \              000000000000
   \              00000000    
   \   00004BF1   000000000000       DC8 0, 0, 0, 0, 0, 0, 0, 0, 0, 0, 0, 0, 0, 0, 0, 0
   \              000000000000
   \              00000000    
   \   00004C01   000000000000       DC8 0, 0, 0, 0, 0, 0, 0, 0, 0, 0, 0, 0, 0, 0, 0, 0
   \              000000000000
   \              00000000    
   \   00004C11   000000000000       DC8 0, 0, 0, 0, 0, 0, 0, 0, 0, 0, 0, 0, 0, 0, 0, 0
   \              000000000000
   \              00000000    
   \   00004C21   000000000000       DC8 0, 0, 0, 0, 0, 0, 0, 0, 0, 0, 0, 0, 0, 0, 0, 0
   \              000000000000
   \              00000000    
   \   00004C31   000000000000       DC8 0, 0, 0, 0, 0, 0, 0, 0, 0, 0, 0, 0, 0, 0, 0, 0
   \              000000000000
   \              00000000    
   \   00004C41   000000000000       DC8 0, 0, 0, 0, 0, 0, 0, 0, 0, 0, 0, 0, 0, 0, 0, 0
   \              000000000000
   \              00000000    
   \   00004C51   000000000000       DC8 0, 0, 0, 0, 0, 0, 0, 0, 0, 0, 0, 0, 0, 0, 0, 0
   \              000000000000
   \              00000000    
   \   00004C61   000000000000       DC8 0, 0, 0, 0, 0, 0, 0, 0, 0, 0, 0, 0, 0, 0, 0, 0
   \              000000000000
   \              00000000    
   \   00004C71   000000000000       DC8 0, 0, 0, 0, 0, 0, 0, 0, 0, 0, 0, 0, 0, 0, 0, 0
   \              000000000000
   \              00000000    
   \   00004C81   000000000000       DC8 0, 0, 0, 0, 0, 0, 0, 0, 0, 0, 0, 0, 0, 0, 0, 0
   \              000000000000
   \              00000000    
   \   00004C91   000000000000       DC8 0, 0, 0, 0, 0, 0, 0, 0, 0, 0, 0, 0, 0, 0, 0, 0
   \              000000000000
   \              00000000    
   \   00004CA1   000000000000       DC8 0, 0, 0, 0, 0, 0, 0, 0, 0, 0, 0, 0, 0, 0, 0, 0
   \              000000000000
   \              00000000    
   \   00004CB1   000000000000       DC8 0, 0, 0, 0, 0, 0, 0, 0, 0, 0, 0, 0, 0, 0, 0, 0
   \              000000000000
   \              00000000    
   \   00004CC1   000000000000       DC8 0, 0, 0, 0, 0, 0, 0, 0, 0, 0, 0, 0, 0, 0, 0, 0
   \              000000000000
   \              00000000    
   \   00004CD1   000000000000       DC8 0, 0, 0, 0, 0, 0, 0, 0, 0, 0, 0, 0, 0, 0, 0, 0
   \              000000000000
   \              00000000    
   \   00004CE1   000000000000       DC8 0, 0, 0, 0, 0, 0, 0, 0, 0, 0, 0, 0, 0, 0, 0, 0
   \              000000000000
   \              00000000    
   \   00004CF1   000000000000       DC8 0, 0, 0, 0, 0, 0, 0, 0, 0, 0, 0, 0, 0, 0, 0, 0
   \              000000000000
   \              00000000    
   \   00004D01   000000000000       DC8 0, 0, 0, 0, 0, 0, 0, 0, 0, 0, 0, 0, 0, 0, 0, 0
   \              000000000000
   \              00000000    
   \   00004D11   000000000000       DC8 0, 0, 0, 0, 0, 0, 0, 0, 0, 0, 0, 0, 0, 0, 0, 0
   \              000000000000
   \              00000000    
   \   00004D21   000000000000       DC8 0, 0, 0, 0, 0, 0, 0, 0, 0, 0, 0, 0, 0, 0, 0, 0
   \              000000000000
   \              00000000    
   \   00004D31   000000000000       DC8 0, 0, 0, 0, 0, 0, 0, 0, 0, 0, 0, 0, 0, 0, 0, 0
   \              000000000000
   \              00000000    
   \   00004D41   000000000000       DC8 0, 0, 0, 0, 0, 0, 0, 0, 0, 0, 0, 0, 0, 0, 0, 0
   \              000000000000
   \              00000000    
   \   00004D51   000000000000       DC8 0, 0, 0, 0, 0, 0, 0, 0, 0, 0, 0, 0, 0, 0, 0, 0
   \              000000000000
   \              00000000    
   \   00004D61   000000000000       DC8 0, 0, 0, 0, 0, 0, 0, 0, 0, 0, 0, 0, 0, 0, 0, 0
   \              000000000000
   \              00000000    
   \   00004D71   000000000000       DC8 0, 0, 0, 0, 0, 0, 0, 0, 0, 0, 0, 0, 0, 0, 0, 0
   \              000000000000
   \              00000000    
   \   00004D81   000000000000       DC8 0, 0, 0, 0, 0, 0, 0, 0, 0, 0, 0, 0, 0, 0, 0, 0
   \              000000000000
   \              00000000    
   \   00004D91   000000000000       DC8 0, 0, 0, 0, 0, 0, 0, 0, 0, 0, 0, 0, 0, 0, 0, 0
   \              000000000000
   \              00000000    
   \   00004DA1   000000000000       DC8 0, 0, 0, 0, 0, 0, 0, 0, 0, 0, 0, 0, 0, 0, 0, 0
   \              000000000000
   \              00000000    
   \   00004DB1   000000000000       DC8 0, 0, 0, 0, 0, 0, 0, 0, 0, 0, 0, 0, 0, 0, 0, 0
   \              000000000000
   \              00000000    
   \   00004DC1   000000000000       DC8 0, 0, 0, 0, 0, 0, 0, 0, 0, 0, 0, 0, 0, 0, 0, 0
   \              000000000000
   \              00000000    
   \   00004DD1   000000000000       DC8 0, 0, 0, 0, 0, 0, 0, 0, 0, 0, 0, 0, 0, 0, 0, 0
   \              000000000000
   \              00000000    
   \   00004DE1   000000000000       DC8 0, 0, 0, 0, 0, 0, 0, 0, 0, 0, 0, 0, 0, 0, 0, 0
   \              000000000000
   \              00000000    
   \   00004DF1   000000000000       DC8 0, 0, 0, 0, 0, 0, 0, 0, 0, 0, 0, 0, 0, 0, 0, 0
   \              000000000000
   \              00000000    
   \   00004E01   000000000000       DC8 0, 0, 0, 0, 0, 0, 0, 0, 0, 0, 0, 0, 0, 0, 0, 0
   \              000000000000
   \              00000000    
   \   00004E11   000000000000       DC8 0, 0, 0, 0, 0, 0, 0, 0, 0, 0, 0, 0, 0, 0, 0, 0
   \              000000000000
   \              00000000    
   \   00004E21   000000000000       DC8 0, 0, 0, 0, 0, 0, 0, 0, 0, 0, 0, 0, 0, 0, 0, 0
   \              000000000000
   \              00000000    
   \   00004E31   000000000000       DC8 0, 0, 0, 0, 0, 0, 0, 0, 0, 0, 0, 0, 0, 0, 0, 0
   \              000000000000
   \              00000000    
   \   00004E41   000000000000       DC8 0, 0, 0, 0, 0, 0, 0, 0, 0, 0, 0, 0, 0, 0, 0, 0
   \              000000000000
   \              00000000    
   \   00004E51   000000000000       DC8 0, 0, 0, 0, 0, 0, 0, 0, 0, 0, 0, 0, 0, 0, 0, 0
   \              000000000000
   \              00000000    
   \   00004E61   000000000000       DC8 0, 0, 0, 0, 0, 0, 0, 0, 0, 0, 0, 0, 0, 0, 0, 0
   \              000000000000
   \              00000000    
   \   00004E71   000000000000       DC8 0, 0, 0, 0, 0, 0, 0, 0, 0, 0, 0, 0, 0, 0, 0, 0
   \              000000000000
   \              00000000    
   \   00004E81   000000000000       DC8 0, 0, 0, 0, 0, 0, 0, 0, 0, 0, 0, 0, 0, 0, 0, 0
   \              000000000000
   \              00000000    
   \   00004E91   000000000000       DC8 0, 0, 0, 0, 0, 0, 0, 0, 0, 0, 0, 0, 0, 0, 0, 0
   \              000000000000
   \              00000000    
   \   00004EA1   000000000000       DC8 0, 0, 0, 0, 0, 0, 0, 0, 0, 0, 0, 0, 0, 0, 0, 0
   \              000000000000
   \              00000000    
   \   00004EB1   000000000000       DC8 0, 0, 0, 0, 0, 0, 0, 0, 0, 0, 0, 0, 0, 0, 0, 0
   \              000000000000
   \              00000000    
   \   00004EC1   000000000000       DC8 0, 0, 0, 0, 0, 0, 0, 0, 0, 0, 0, 0, 0, 0, 0, 0
   \              000000000000
   \              00000000    
   \   00004ED1   000000000000       DC8 0, 0, 0, 0, 0, 0, 0, 0, 0, 0, 0, 0, 0, 0, 0, 0
   \              000000000000
   \              00000000    
   \   00004EE1   000000000000       DC8 0, 0, 0, 0, 0, 0, 0, 0, 0, 0, 0, 0, 0, 0, 0, 0
   \              000000000000
   \              00000000    
   \   00004EF1   000000000000       DC8 0, 0, 0, 0, 0, 0, 0, 0, 0, 0, 0, 0, 0, 0, 0, 0
   \              000000000000
   \              00000000    
   \   00004F01   000000000000       DC8 0, 0, 0, 0, 0, 0, 0, 0, 0, 0, 0, 0, 0, 0, 0, 0
   \              000000000000
   \              00000000    
   \   00004F11   000000000000       DC8 0, 0, 0, 0, 0, 0, 0, 0, 0, 0, 0, 0, 0, 0, 0, 0
   \              000000000000
   \              00000000    
   \   00004F21   000000000000       DC8 0, 0, 0, 0, 0, 0, 0, 0, 0, 0, 0, 0, 0, 0, 0, 0
   \              000000000000
   \              00000000    
   \   00004F31   000000000000       DC8 0, 0, 0, 0, 0, 0, 0, 0, 0, 0, 0, 0, 0, 0, 0, 0
   \              000000000000
   \              00000000    
   \   00004F41   000000000000       DC8 0, 0, 0, 0, 0, 0, 0, 0, 0, 0, 0, 0, 0, 0, 0, 0
   \              000000000000
   \              00000000    
   \   00004F51   000000000000       DC8 0, 0, 0, 0, 0, 0, 0, 0, 0, 0, 0, 0, 0, 0, 0, 0
   \              000000000000
   \              00000000    
   \   00004F61   000000000000       DC8 0, 0, 0, 0, 0, 0, 0, 0, 0, 0, 0, 0, 0, 0, 0, 0
   \              000000000000
   \              00000000    
   \   00004F71   000000000000       DC8 0, 0, 0, 0, 0, 0, 0, 0, 0, 0, 0, 0, 0, 0, 0, 0
   \              000000000000
   \              00000000    
   \   00004F81   000000000000       DC8 0, 0, 0, 0, 0, 0, 0, 0, 0, 0, 0, 0, 0, 0, 0, 0
   \              000000000000
   \              00000000    
   \   00004F91   000000000000       DC8 0, 0, 0, 0, 0, 0, 0, 0, 0, 0, 0, 0, 0, 0, 0, 0
   \              000000000000
   \              00000000    
   \   00004FA1   000000000000       DC8 0, 0, 0, 0, 0, 0, 0, 0, 0, 0, 0, 0, 0, 0, 0, 0
   \              000000000000
   \              00000000    
   \   00004FB1   000000000000       DC8 0, 0, 0, 0, 0, 0, 0, 0, 0, 0, 0, 0, 0, 0, 0, 0
   \              000000000000
   \              00000000    
   \   00004FC1   000000000000       DC8 0, 0, 0, 0, 0, 0, 0, 0, 0, 0, 0, 0, 0, 0, 0, 0
   \              000000000000
   \              00000000    
   \   00004FD1   000000000000       DC8 0, 0, 0, 0, 0, 0, 0, 0, 0, 0, 0, 0, 0, 0, 0, 0
   \              000000000000
   \              00000000    
   \   00004FE1   000000000000       DC8 0, 0, 0, 0, 0, 0, 0, 0, 0, 0, 0, 0, 0, 0, 0, 0
   \              000000000000
   \              00000000    
   \   00004FF1   000000000000       DC8 0, 0, 0, 0, 0, 0, 0, 0, 0, 0, 0, 0, 0, 0, 0, 0
   \              000000000000
   \              00000000    
   \   00005001   000000000000       DC8 0, 0, 0, 0, 0, 0, 0, 0, 0, 0, 0, 0, 0, 0, 0, 0
   \              000000000000
   \              00000000    
   \   00005011   000000000000       DC8 0, 0, 0, 0, 0, 0, 0, 0, 0, 0, 0, 0, 0, 0, 0, 0
   \              000000000000
   \              00000000    
   \   00005021   000000000000       DC8 0, 0, 0, 0, 0, 0, 0, 0, 0, 0, 0, 0, 0, 0, 0, 0
   \              000000000000
   \              00000000    
   \   00005031   000000000000       DC8 0, 0, 0, 0, 0, 0, 0, 0, 0, 0, 0, 0, 0, 0, 0, 0
   \              000000000000
   \              00000000    
   \   00005041   000000000000       DC8 0, 0, 0, 0, 0, 0, 0, 0, 0, 0, 0, 0, 0, 0, 0, 0
   \              000000000000
   \              00000000    
   \   00005051   000000000000       DC8 0, 0, 0, 0, 0, 0, 0, 0, 0, 0, 0, 0, 0, 0, 0, 0
   \              000000000000
   \              00000000    
   \   00005061   000000000000       DC8 0, 0, 0, 0, 0, 0, 0, 0, 0, 0, 0, 0, 0, 0, 0, 0
   \              000000000000
   \              00000000    
   \   00005071   000000000000       DC8 0, 0, 0, 0, 0, 0, 0, 0, 0, 0, 0, 0, 0, 0, 0, 0
   \              000000000000
   \              00000000    
   \   00005081   000000000000       DC8 0, 0, 0, 0, 0, 0, 0, 0, 0, 0, 0, 0, 0, 0, 0, 0
   \              000000000000
   \              00000000    
   \   00005091   000000000000       DC8 0, 0, 0, 0, 0, 0, 0, 0, 0, 0, 0, 0, 0, 0, 0, 0
   \              000000000000
   \              00000000    
   \   000050A1   000000000000       DC8 0, 0, 0, 0, 0, 0, 0, 0, 0, 0, 0, 0, 0, 0, 0, 0
   \              000000000000
   \              00000000    
   \   000050B1   000000000000       DC8 0, 0, 0, 0, 0, 0, 0, 0, 0, 0, 0, 0, 0, 0, 0, 0
   \              000000000000
   \              00000000    
   \   000050C1   000000000000       DC8 0, 0, 0, 0, 0, 0, 0, 0, 0, 0, 0, 0, 0, 0, 0, 0
   \              000000000000
   \              00000000    
   \   000050D1   000000000000       DC8 0, 0, 0, 0, 0, 0, 0, 0, 0, 0, 0, 0, 0, 0, 0, 0
   \              000000000000
   \              00000000    
   \   000050E1   000000000000       DC8 0, 0, 0, 0, 0, 0, 0, 0, 0, 0, 0, 0, 0, 0, 0, 0
   \              000000000000
   \              00000000    
   \   000050F1   000000000000       DC8 0, 0, 0, 0, 0, 0, 0, 0, 0, 0, 0, 0, 0, 0, 0, 0
   \              000000000000
   \              00000000    
   \   00005101   000000000000       DC8 0, 0, 0, 0, 0, 0, 0, 0, 0, 0, 0, 0, 0, 0, 0, 0
   \              000000000000
   \              00000000    
   \   00005111   000000000000       DC8 0, 0, 0, 0, 0, 0, 0, 0, 0, 0, 0, 0, 0, 0, 0, 0
   \              000000000000
   \              00000000    
   \   00005121   000000000000       DC8 0, 0, 0, 0, 0, 0, 0, 0, 0, 0, 0, 0, 0, 0, 0, 0
   \              000000000000
   \              00000000    
   \   00005131   000000000000       DC8 0, 0, 0, 0, 0, 0, 0, 0, 0, 0, 0, 0, 0, 0, 0, 0
   \              000000000000
   \              00000000    
   \   00005141   000000000000       DC8 0, 0, 0, 0, 0, 0, 0, 0, 0, 0, 0, 0, 0, 0, 0, 0
   \              000000000000
   \              00000000    
   \   00005151   000000000000       DC8 0, 0, 0, 0, 0, 0, 0, 0, 0, 0, 0, 0, 0, 0, 0, 0
   \              000000000000
   \              00000000    
   \   00005161   000000000000       DC8 0, 0, 0, 0, 0, 0, 0, 0, 0, 0, 0, 0, 0, 0, 0, 0
   \              000000000000
   \              00000000    
   \   00005171   000000000000       DC8 0, 0, 0, 0, 0, 0, 0, 0, 0, 0, 0, 0, 0, 0, 0, 0
   \              000000000000
   \              00000000    
   \   00005181   000000000000       DC8 0, 0, 0, 0, 0, 0, 0, 0, 0, 0, 0, 0, 0, 0, 0, 0
   \              000000000000
   \              00000000    
   \   00005191   000000000000       DC8 0, 0, 0, 0, 0, 0, 0, 0, 0, 0, 0, 0, 0, 0, 0, 0
   \              000000000000
   \              00000000    
   \   000051A1   000000000000       DC8 0, 0, 0, 0, 0, 0, 0, 0, 0, 0, 0, 0, 0, 0, 0, 0
   \              000000000000
   \              00000000    
   \   000051B1   000000000000       DC8 0, 0, 0, 0, 0, 0, 0, 0, 0, 0, 0, 0, 0, 0, 0, 0
   \              000000000000
   \              00000000    
   \   000051C1   000000000000       DC8 0, 0, 0, 0, 0, 0, 0, 0, 0, 0, 0, 0, 0, 0, 0, 0
   \              000000000000
   \              00000000    
   \   000051D1   000000000000       DC8 0, 0, 0, 0, 0, 0, 0, 0, 0, 0, 0, 0, 0, 0, 0, 0
   \              000000000000
   \              00000000    
   \   000051E1   000000000000       DC8 0, 0, 0, 0, 0, 0, 0, 0, 0, 0, 0, 0, 0, 0, 0, 0
   \              000000000000
   \              00000000    
   \   000051F1   000000000000       DC8 0, 0, 0, 0, 0, 0, 0, 0, 0, 0, 0, 0, 0, 0, 0, 0
   \              000000000000
   \              00000000    
   \   00005201   000000000000       DC8 0, 0, 0, 0, 0, 0, 0, 0, 0, 0, 0, 0, 0, 0, 0, 0
   \              000000000000
   \              00000000    
   \   00005211   000000000000       DC8 0, 0, 0, 0, 0, 0, 0, 0, 0, 0, 0, 0, 0, 0, 0, 0
   \              000000000000
   \              00000000    
   \   00005221   000000000000       DC8 0, 0, 0, 0, 0, 0, 0, 0, 0, 0, 0, 0, 0, 0, 0, 0
   \              000000000000
   \              00000000    
   \   00005231   000000000000       DC8 0, 0, 0, 0, 0, 0, 0, 0, 0, 0, 0, 0, 0, 0, 0, 0
   \              000000000000
   \              00000000    
   \   00005241   000000000000       DC8 0, 0, 0, 0, 0, 0, 0, 0, 0, 0, 0, 0, 0, 0, 0, 0
   \              000000000000
   \              00000000    
   \   00005251   000000000000       DC8 0, 0, 0, 0, 0, 0, 0, 0, 0, 0, 0, 0, 0, 0, 0, 0
   \              000000000000
   \              00000000    
   \   00005261   000000000000       DC8 0, 0, 0, 0, 0, 0, 0, 0, 0, 0, 0, 0, 0, 0, 0, 0
   \              000000000000
   \              00000000    
   \   00005271   000000000000       DC8 0, 0, 0, 0, 0, 0, 0, 0, 0, 0, 0, 0, 0, 0, 0, 0
   \              000000000000
   \              00000000    
   \   00005281   000000000000       DC8 0, 0, 0, 0, 0, 0, 0, 0, 0, 0, 0, 0, 0, 0, 0, 0
   \              000000000000
   \              00000000    
   \   00005291   000000000000       DC8 0, 0, 0, 0, 0, 0, 0, 0, 0, 0, 0, 0, 0, 0, 0, 0
   \              000000000000
   \              00000000    
   \   000052A1   000000000000       DC8 0, 0, 0, 0, 0, 0, 0, 0, 0, 0, 0, 0, 0, 0, 0, 0
   \              000000000000
   \              00000000    
   \   000052B1   000000000000       DC8 0, 0, 0, 0, 0, 0, 0, 0, 0, 0, 0, 0, 0, 0, 0, 0
   \              000000000000
   \              00000000    
   \   000052C1   000000000000       DC8 0, 0, 0, 0, 0, 0, 0, 0, 0, 0, 0, 0, 0, 0, 0, 0
   \              000000000000
   \              00000000    
   \   000052D1   000000000000       DC8 0, 0, 0, 0, 0, 0, 0, 0, 0, 0, 0, 0, 0, 0, 0, 0
   \              000000000000
   \              00000000    
   \   000052E1   000000000000       DC8 0, 0, 0, 0, 0, 0, 0, 0, 0, 0, 0, 0, 0, 0, 0, 0
   \              000000000000
   \              00000000    
   \   000052F1   000000000000       DC8 0, 0, 0, 0, 0, 0, 0, 0, 0, 0, 0, 0, 0, 0, 0, 0
   \              000000000000
   \              00000000    
   \   00005301   000000000000       DC8 0, 0, 0, 0, 0, 0, 0, 0, 0, 0, 0, 0, 0, 0, 0, 0
   \              000000000000
   \              00000000    
   \   00005311   000000000000       DC8 0, 0, 0, 0, 0, 0, 0, 0, 0, 0, 0, 0, 0, 0, 0, 0
   \              000000000000
   \              00000000    
   \   00005321   000000000000       DC8 0, 0, 0, 0, 0, 0, 0, 0, 0, 0, 0, 0, 0, 0, 0, 0
   \              000000000000
   \              00000000    
   \   00005331   000000000000       DC8 0, 0, 0, 0, 0, 0, 0, 0, 0, 0, 0, 0, 0, 0, 0, 0
   \              000000000000
   \              00000000    
   \   00005341   000000000000       DC8 0, 0, 0, 0, 0, 0, 0, 0, 0, 0, 0, 0, 0, 0, 0, 0
   \              000000000000
   \              00000000    
   \   00005351   000000000000       DC8 0, 0, 0, 0, 0, 0, 0, 0, 0, 0, 0, 0, 0, 0, 0, 0
   \              000000000000
   \              00000000    
   \   00005361   000000000000       DC8 0, 0, 0, 0, 0, 0, 0, 0, 0, 0, 0, 0, 0, 0, 0, 0
   \              000000000000
   \              00000000    
   \   00005371   000000000000       DC8 0, 0, 0, 0, 0, 0, 0, 0, 0, 0, 0, 0, 0, 0, 0, 0
   \              000000000000
   \              00000000    
   \   00005381   000000000000       DC8 0, 0, 0, 0, 0, 0, 0, 0, 0, 0, 0, 0, 0, 0, 0, 0
   \              000000000000
   \              00000000    
   \   00005391   000000000000       DC8 0, 0, 0, 0, 0, 0, 0, 0, 0, 0, 0, 0, 0, 0, 0, 0
   \              000000000000
   \              00000000    
   \   000053A1   000000000000       DC8 0, 0, 0, 0, 0, 0, 0, 0, 0, 0, 0, 0, 0, 0, 0, 0
   \              000000000000
   \              00000000    
   \   000053B1   000000000000       DC8 0, 0, 0, 0, 0, 0, 0, 0, 0, 0, 0, 0, 0, 0, 0, 0
   \              000000000000
   \              00000000    
   \   000053C1   000000000000       DC8 0, 0, 0, 0, 0, 0, 0, 0, 0, 0, 0, 0, 0, 0, 0, 0
   \              000000000000
   \              00000000    
   \   000053D1   000000000000       DC8 0, 0, 0, 0, 0, 0, 0, 0, 0, 0, 0, 0, 0, 0, 0, 0
   \              000000000000
   \              00000000    
   \   000053E1   000000000000       DC8 0, 0, 0, 0, 0, 0, 0, 0, 0, 0, 0, 0, 0, 0, 0, 0
   \              000000000000
   \              00000000    
   \   000053F1   000000000000       DC8 0, 0, 0, 0, 0, 0, 0, 0, 0, 0, 0, 0, 0, 0, 0, 0
   \              000000000000
   \              00000000    
   \   00005401   000000000000       DC8 0, 0, 0, 0, 0, 0, 0, 0, 0, 0, 0, 0, 0, 0, 0, 0
   \              000000000000
   \              00000000    
   \   00005411   000000000000       DC8 0, 0, 0, 0, 0, 0, 0, 0, 0, 0, 0, 0, 0, 0, 0, 0
   \              000000000000
   \              00000000    
   \   00005421   000000000000       DC8 0, 0, 0, 0, 0, 0, 0, 0, 0, 0, 0, 0, 0, 0, 0, 0
   \              000000000000
   \              00000000    
   \   00005431   000000000000       DC8 0, 0, 0, 0, 0, 0, 0, 0, 0, 0, 0, 0, 0, 0, 0, 0
   \              000000000000
   \              00000000    
   \   00005441   000000000000       DC8 0, 0, 0, 0, 0, 0, 0, 0, 0, 0, 0, 0, 0, 0, 0, 0
   \              000000000000
   \              00000000    
   \   00005451   000000000000       DC8 0, 0, 0, 0, 0, 0, 0, 0, 0, 0, 0, 0, 0, 0, 0, 0
   \              000000000000
   \              00000000    
   \   00005461   000000000000       DC8 0, 0, 0, 0, 0, 0, 0, 0, 0, 0, 0, 0, 0, 0, 0, 0
   \              000000000000
   \              00000000    
   \   00005471   000000000000       DC8 0, 0, 0, 0, 0, 0, 0, 0, 0, 0, 0, 0, 0, 0, 0, 0
   \              000000000000
   \              00000000    
   \   00005481   000000000000       DC8 0, 0, 0, 0, 0, 0, 0, 0, 0, 0, 0, 0, 0, 0, 0, 0
   \              000000000000
   \              00000000    
   \   00005491   000000000000       DC8 0, 0, 0, 0, 0, 0, 0, 0, 0, 0, 0, 0, 0, 0, 0, 0
   \              000000000000
   \              00000000    
   \   000054A1   000000000000       DC8 0, 0, 0, 0, 0, 0, 0, 0, 0, 0, 0, 0, 0, 0, 0, 0
   \              000000000000
   \              00000000    
   \   000054B1   000000000000       DC8 0, 0, 0, 0, 0, 0, 0, 0, 0, 0, 0, 0, 0, 0, 0, 0
   \              000000000000
   \              00000000    
   \   000054C1   000000000000       DC8 0, 0, 0, 0, 0, 0, 0, 0, 0, 0, 0, 0, 0, 0, 0, 0
   \              000000000000
   \              00000000    
   \   000054D1   000000000000       DC8 0, 0, 0, 0, 0, 0, 0, 0, 0, 0, 0, 0, 0, 0, 0, 0
   \              000000000000
   \              00000000    
   \   000054E1   000000000000       DC8 0, 0, 0, 0, 0, 0, 0, 0, 0, 0, 0, 0, 0, 0, 0, 0
   \              000000000000
   \              00000000    
   \   000054F1   000000000000       DC8 0, 0, 0, 0, 0, 0, 0, 0, 0, 0, 0, 0, 0, 0, 0, 0
   \              000000000000
   \              00000000    
   \   00005501   000000000000       DC8 0, 0, 0, 0, 0, 0, 0, 0, 0, 0, 0, 0, 0, 0, 0, 0
   \              000000000000
   \              00000000    
   \   00005511   000000000000       DC8 0, 0, 0, 0, 0, 0, 0, 0, 0, 0, 0, 0, 0, 0, 0, 0
   \              000000000000
   \              00000000    
   \   00005521   000000000000       DC8 0, 0, 0, 0, 0, 0, 0, 0, 0, 0, 0, 0, 0, 0, 0, 0
   \              000000000000
   \              00000000    
   \   00005531   000000000000       DC8 0, 0, 0, 0, 0, 0, 0, 0, 0, 0, 0, 0, 0, 0, 0, 0
   \              000000000000
   \              00000000    
   \   00005541   000000000000       DC8 0, 0, 0, 0, 0, 0, 0, 0, 0, 0, 0, 0, 0, 0, 0, 0
   \              000000000000
   \              00000000    
   \   00005551   000000000000       DC8 0, 0, 0, 0, 0, 0, 0, 0, 0, 0, 0, 0, 0, 0, 0, 0
   \              000000000000
   \              00000000    
   \   00005561   000000000000       DC8 0, 0, 0, 0, 0, 0, 0, 0, 0, 0, 0, 0, 0, 0, 0, 0
   \              000000000000
   \              00000000    
   \   00005571   000000000000       DC8 0, 0, 0, 0, 0, 0, 0, 0, 0, 0, 0, 0, 0, 0, 0, 0
   \              000000000000
   \              00000000    
   \   00005581   000000000000       DC8 0, 0, 0, 0, 0, 0, 0, 0, 0, 0, 0, 0, 0, 0, 0, 0
   \              000000000000
   \              00000000    
   \   00005591   000000000000       DC8 0, 0, 0, 0, 0, 0, 0, 0, 0, 0, 0, 0, 0, 0, 0, 0
   \              000000000000
   \              00000000    
   \   000055A1   000000000000       DC8 0, 0, 0, 0, 0, 0, 0, 0, 0, 0, 0, 0, 0, 0, 0, 0
   \              000000000000
   \              00000000    
   \   000055B1   000000000000       DC8 0, 0, 0, 0, 0, 0, 0, 0, 0, 0, 0, 0, 0, 0, 0, 0
   \              000000000000
   \              00000000    
   \   000055C1   000000000000       DC8 0, 0, 0, 0, 0, 0, 0, 0, 0, 0, 0, 0, 0, 0, 0, 0
   \              000000000000
   \              00000000    
   \   000055D1   000000000000       DC8 0, 0, 0, 0, 0, 0, 0, 0, 0, 0, 0, 0, 0, 0, 0, 0
   \              000000000000
   \              00000000    
   \   000055E1   000000000000       DC8 0, 0, 0, 0, 0, 0, 0, 0, 0, 0, 0, 0, 0, 0, 0, 0
   \              000000000000
   \              00000000    
   \   000055F1   000000000000       DC8 0, 0, 0, 0, 0, 0, 0, 0, 0, 0, 0, 0, 0, 0, 0, 0
   \              000000000000
   \              00000000    
   \   00005601   000000000000       DC8 0, 0, 0, 0, 0, 0, 0, 0, 0, 0, 0, 0, 0, 0, 0, 0
   \              000000000000
   \              00000000    
   \   00005611   000000000000       DC8 0, 0, 0, 0, 0, 0, 0, 0, 0, 0, 0, 0, 0, 0, 0, 0
   \              000000000000
   \              00000000    
   \   00005621   000000000000       DC8 0, 0, 0, 0, 0, 0, 0, 0, 0, 0, 0, 0, 0, 0, 0, 0
   \              000000000000
   \              00000000    
   \   00005631   000000000000       DC8 0, 0, 0, 0, 0, 0, 0, 0, 0, 0, 0, 0, 0, 0, 0, 0
   \              000000000000
   \              00000000    
   \   00005641   000000000000       DC8 0, 0, 0, 0, 0, 0, 0, 0, 0, 0, 0, 0, 0, 0, 0, 0
   \              000000000000
   \              00000000    
   \   00005651   000000000000       DC8 0, 0, 0, 0, 0, 0, 0, 0, 0, 0, 0, 0, 0, 0, 0, 0
   \              000000000000
   \              00000000    
   \   00005661   000000000000       DC8 0, 0, 0, 0, 0, 0, 0, 0, 0, 0, 0, 0, 0, 0, 0, 0
   \              000000000000
   \              00000000    
   \   00005671   000000000000       DC8 0, 0, 0, 0, 0, 0, 0, 0, 0, 0, 0, 0, 0, 0, 0, 0
   \              000000000000
   \              00000000    
   \   00005681   000000000000       DC8 0, 0, 0, 0, 0, 0, 0, 0, 0, 0, 0, 0, 0, 0, 0, 0
   \              000000000000
   \              00000000    
   \   00005691   000000000000       DC8 0, 0, 0, 0, 0, 0, 0, 0, 0, 0, 0, 0, 0, 0, 0, 0
   \              000000000000
   \              00000000    
   \   000056A1   000000000000       DC8 0, 0, 0, 0, 0, 0, 0, 0, 0, 0, 0, 0, 0, 0, 0, 0
   \              000000000000
   \              00000000    
   \   000056B1   000000000000       DC8 0, 0, 0, 0, 0, 0, 0, 0, 0, 0, 0, 0, 0, 0, 0, 0
   \              000000000000
   \              00000000    
   \   000056C1   000000000000       DC8 0, 0, 0, 0, 0, 0, 0, 0, 0, 0, 0, 0, 0, 0, 0, 0
   \              000000000000
   \              00000000    
   \   000056D1   000000000000       DC8 0, 0, 0, 0, 0, 0, 0, 0, 0, 0, 0, 0, 0, 0, 0, 0
   \              000000000000
   \              00000000    
   \   000056E1   000000000000       DC8 0, 0, 0, 0, 0, 0, 0, 0, 0, 0, 0, 0, 0, 0, 0, 0
   \              000000000000
   \              00000000    
   \   000056F1   000000000000       DC8 0, 0, 0, 0, 0, 0, 0, 0, 0, 0, 0, 0, 0, 0, 0, 0
   \              000000000000
   \              00000000    
   \   00005701   000000000000       DC8 0, 0, 0, 0, 0, 0, 0, 0, 0, 0, 0, 0, 0, 0, 0, 0
   \              000000000000
   \              00000000    
   \   00005711   000000000000       DC8 0, 0, 0, 0, 0, 0, 0, 0, 0, 0, 0, 0, 0, 0, 0, 0
   \              000000000000
   \              00000000    
   \   00005721   000000000000       DC8 0, 0, 0, 0, 0, 0, 0, 0, 0, 0, 0, 0, 0, 0, 0, 0
   \              000000000000
   \              00000000    
   \   00005731   000000000000       DC8 0, 0, 0, 0, 0, 0, 0, 0, 0, 0, 0, 0, 0, 0, 0, 0
   \              000000000000
   \              00000000    
   \   00005741   000000000000       DC8 0, 0, 0, 0, 0, 0, 0, 0, 0, 0, 0, 0, 0, 0, 0, 0
   \              000000000000
   \              00000000    
   \   00005751   000000000000       DC8 0, 0, 0, 0, 0, 0, 0, 0, 0, 0, 0, 0, 0, 0, 0, 0
   \              000000000000
   \              00000000    
   \   00005761   000000000000       DC8 0, 0, 0, 0, 0, 0, 0, 0, 0, 0, 0, 0, 0, 0, 0, 0
   \              000000000000
   \              00000000    
   \   00005771   000000000000       DC8 0, 0, 0, 0, 0, 0, 0, 0, 0, 0, 0, 0, 0, 0, 0, 0
   \              000000000000
   \              00000000    
   \   00005781   000000000000       DC8 0, 0, 0, 0, 0, 0, 0, 0, 0, 0, 0, 0, 0, 0, 0, 0
   \              000000000000
   \              00000000    
   \   00005791   000000000000       DC8 0, 0, 0, 0, 0, 0, 0, 0, 0, 0, 0, 0, 0, 0, 0, 0
   \              000000000000
   \              00000000    
   \   000057A1   000000000000       DC8 0, 0, 0, 0, 0, 0, 0, 0, 0, 0, 0, 0, 0, 0, 0, 0
   \              000000000000
   \              00000000    
   \   000057B1   000000000000       DC8 0, 0, 0, 0, 0, 0, 0, 0, 0, 0, 0, 0, 0, 0, 0, 0
   \              000000000000
   \              00000000    
   \   000057C1   000000000000       DC8 0, 0, 0, 0, 0, 0, 0, 0, 0, 0, 0, 0, 0, 0, 0, 0
   \              000000000000
   \              00000000    
   \   000057D1   000000000000       DC8 0, 0, 0, 0, 0, 0, 0, 0, 0, 0, 0, 0, 0, 0, 0, 0
   \              000000000000
   \              00000000    
   \   000057E1   000000000000       DC8 0, 0, 0, 0, 0, 0, 0, 0, 0, 0, 0, 0, 0, 0, 0, 0
   \              000000000000
   \              00000000    
   \   000057F1   000000000000       DC8 0, 0, 0, 0, 0, 0, 0, 0, 0, 0, 0, 0, 0, 0, 0, 0
   \              000000000000
   \              00000000    
   \   00005801   000000000000       DC8 0, 0, 0, 0, 0, 0, 0, 0, 0, 0, 0, 0, 0, 0, 0, 0
   \              000000000000
   \              00000000    
   \   00005811   000000000000       DC8 0, 0, 0, 0, 0, 0, 0, 0, 0, 0, 0, 0, 0, 0, 0, 0
   \              000000000000
   \              00000000    
   \   00005821   000000000000       DC8 0, 0, 0, 0, 0, 0, 0, 0, 0, 0, 0, 0, 0, 0, 0, 0
   \              000000000000
   \              00000000    
   \   00005831   000000000000       DC8 0, 0, 0, 0, 0, 0, 0, 0, 0, 0, 0, 0, 0, 0, 0, 0
   \              000000000000
   \              00000000    
   \   00005841   000000000000       DC8 0, 0, 0, 0, 0, 0, 0, 0, 0, 0, 0, 0, 0, 0, 0, 0
   \              000000000000
   \              00000000    
   \   00005851   000000000000       DC8 0, 0, 0, 0, 0, 0, 0, 0, 0, 0, 0, 0, 0, 0, 0, 0
   \              000000000000
   \              00000000    
   \   00005861   000000000000       DC8 0, 0, 0, 0, 0, 0, 0, 0, 0, 0, 0, 0, 0, 0, 0, 0
   \              000000000000
   \              00000000    
   \   00005871   000000000000       DC8 0, 0, 0, 0, 0, 0, 0, 0, 0, 0, 0, 0, 0, 0, 0, 0
   \              000000000000
   \              00000000    
   \   00005881   000000000000       DC8 0, 0, 0, 0, 0, 0, 0, 0, 0, 0, 0, 0, 0, 0, 0, 0
   \              000000000000
   \              00000000    
   \   00005891   000000000000       DC8 0, 0, 0, 0, 0, 0, 0, 0, 0, 0, 0, 0, 0, 0, 0, 0
   \              000000000000
   \              00000000    
   \   000058A1   000000000000       DC8 0, 0, 0, 0, 0, 0, 0, 0, 0, 0, 0, 0, 0, 0, 0, 0
   \              000000000000
   \              00000000    
   \   000058B1   000000000000       DC8 0, 0, 0, 0, 0, 0, 0, 0, 0, 0, 0, 0, 0, 0, 0, 0
   \              000000000000
   \              00000000    
   \   000058C1   000000000000       DC8 0, 0, 0, 0, 0, 0, 0, 0, 0, 0, 0, 0, 0, 0, 0, 0
   \              000000000000
   \              00000000    
   \   000058D1   000000000000       DC8 0, 0, 0, 0, 0, 0, 0, 0, 0, 0, 0, 0, 0, 0, 0, 0
   \              000000000000
   \              00000000    
   \   000058E1   000000000000       DC8 0, 0, 0, 0, 0, 0, 0, 0, 0, 0, 0, 0, 0, 0, 0, 0
   \              000000000000
   \              00000000    
   \   000058F1   000000000000       DC8 0, 0, 0, 0, 0, 0, 0, 0, 0, 0, 0, 0, 0, 0, 0, 0
   \              000000000000
   \              00000000    
   \   00005901   000000000000       DC8 0, 0, 0, 0, 0, 0, 0, 0, 0, 0, 0, 0, 0, 0, 0, 0
   \              000000000000
   \              00000000    
   \   00005911   000000000000       DC8 0, 0, 0, 0, 0, 0, 0, 0, 0, 0, 0, 0, 0, 0, 0, 0
   \              000000000000
   \              00000000    
   \   00005921   000000000000       DC8 0, 0, 0, 0, 0, 0, 0, 0, 0, 0, 0, 0, 0, 0, 0, 0
   \              000000000000
   \              00000000    
   \   00005931   000000000000       DC8 0, 0, 0, 0, 0, 0, 0, 0, 0, 0, 0, 0, 0, 0, 0, 0
   \              000000000000
   \              00000000    
   \   00005941   000000000000       DC8 0, 0, 0, 0, 0, 0, 0, 0, 0, 0, 0, 0, 0, 0, 0, 0
   \              000000000000
   \              00000000    
   \   00005951   000000000000       DC8 0, 0, 0, 0, 0, 0, 0, 0, 0, 0, 0, 0, 0, 0, 0, 0
   \              000000000000
   \              00000000    
   \   00005961   000000000000       DC8 0, 0, 0, 0, 0, 0, 0, 0, 0, 0, 0, 0, 0, 0, 0, 0
   \              000000000000
   \              00000000    
   \   00005971   000000000000       DC8 0, 0, 0, 0, 0, 0, 0, 0, 0, 0, 0, 0, 0, 0, 0, 0
   \              000000000000
   \              00000000    
   \   00005981   000000000000       DC8 0, 0, 0, 0, 0, 0, 0, 0, 0, 0, 0, 0, 0, 0, 0, 0
   \              000000000000
   \              00000000    
   \   00005991   000000000000       DC8 0, 0, 0, 0, 0, 0, 0, 0, 0, 0, 0, 0, 0, 0, 0, 0
   \              000000000000
   \              00000000    
   \   000059A1   000000000000       DC8 0, 0, 0, 0, 0, 0, 0, 0, 0, 0, 0, 0, 0, 0, 0, 0
   \              000000000000
   \              00000000    
   \   000059B1   000000000000       DC8 0, 0, 0, 0, 0, 0, 0, 0, 0, 0, 0, 0, 0, 0, 0, 0
   \              000000000000
   \              00000000    
   \   000059C1   000000000000       DC8 0, 0, 0, 0, 0, 0, 0, 0, 0, 0, 0, 0, 0, 0, 0, 0
   \              000000000000
   \              00000000    
   \   000059D1   000000000000       DC8 0, 0, 0, 0, 0, 0, 0, 0, 0, 0, 0, 0, 0, 0, 0, 0
   \              000000000000
   \              00000000    
   \   000059E1   000000000000       DC8 0, 0, 0, 0, 0, 0, 0, 0, 0, 0, 0, 0, 0, 0, 0, 0
   \              000000000000
   \              00000000    
   \   000059F1   000000000000       DC8 0, 0, 0, 0, 0, 0, 0, 0, 0, 0, 0, 0, 0, 0, 0, 0
   \              000000000000
   \              00000000    
   \   00005A01   000000000000       DC8 0, 0, 0, 0, 0, 0, 0, 0, 0, 0, 0, 0, 0, 0, 0, 0
   \              000000000000
   \              00000000    
   \   00005A11   000000000000       DC8 0, 0, 0, 0, 0, 0, 0, 0, 0, 0, 0, 0, 0, 0, 0, 0
   \              000000000000
   \              00000000    
   \   00005A21   000000000000       DC8 0, 0, 0, 0, 0, 0, 0, 0, 0, 0, 0, 0, 0, 0, 0, 0
   \              000000000000
   \              00000000    
   \   00005A31   000000000000       DC8 0, 0, 0, 0, 0, 0, 0, 0, 0, 0, 0, 0, 0, 0, 0, 0
   \              000000000000
   \              00000000    
   \   00005A41   000000000000       DC8 0, 0, 0, 0, 0, 0, 0, 0, 0, 0, 0, 0, 0, 0, 0, 0
   \              000000000000
   \              00000000    
   \   00005A51   000000000000       DC8 0, 0, 0, 0, 0, 0, 0, 0, 0, 0, 0, 0, 0, 0, 0, 0
   \              000000000000
   \              00000000    
   \   00005A61   000000000000       DC8 0, 0, 0, 0, 0, 0, 0, 0, 0, 0, 0, 0, 0, 0, 0, 0
   \              000000000000
   \              00000000    
   \   00005A71   000000000000       DC8 0, 0, 0, 0, 0, 0, 0, 0, 0, 0, 0, 0, 0, 0, 0, 0
   \              000000000000
   \              00000000    
   \   00005A81   000000000000       DC8 0, 0, 0, 0, 0, 0, 0, 0, 0, 0, 0, 0, 0, 0, 0, 0
   \              000000000000
   \              00000000    
   \   00005A91   000000000000       DC8 0, 0, 0, 0, 0, 0, 0, 0, 0, 0, 0, 0, 0, 0, 0, 0
   \              000000000000
   \              00000000    
   \   00005AA1   000000000000       DC8 0, 0, 0, 0, 0, 0, 0, 0, 0, 0, 0, 0, 0, 0, 0, 0
   \              000000000000
   \              00000000    
   \   00005AB1   000000000000       DC8 0, 0, 0, 0, 0, 0, 0, 0, 0, 0, 0, 0, 0, 0, 0, 0
   \              000000000000
   \              00000000    
   \   00005AC1   000000000000       DC8 0, 0, 0, 0, 0, 0, 0, 0, 0, 0, 0, 0, 0, 0, 0, 0
   \              000000000000
   \              00000000    
   \   00005AD1   000000000000       DC8 0, 0, 0, 0, 0, 0, 0, 0, 0, 0, 0, 0, 0, 0, 0, 0
   \              000000000000
   \              00000000    
   \   00005AE1   000000000000       DC8 0, 0, 0, 0, 0, 0, 0, 0, 0, 0, 0, 0, 0, 0, 0, 0
   \              000000000000
   \              00000000    
   \   00005AF1   000000000000       DC8 0, 0, 0, 0, 0, 0, 0, 0, 0, 0, 0, 0, 0, 0, 0, 0
   \              000000000000
   \              00000000    
   \   00005B01   000000000000       DC8 0, 0, 0, 0, 0, 0, 0, 0, 0, 0, 0, 0, 0, 0, 0, 0
   \              000000000000
   \              00000000    
   \   00005B11   000000000000       DC8 0, 0, 0, 0, 0, 0, 0, 0, 0, 0, 0, 0, 0, 0, 0, 0
   \              000000000000
   \              00000000    
   \   00005B21   000000000000       DC8 0, 0, 0, 0, 0, 0, 0, 0, 0, 0, 0, 0, 0, 0, 0, 0
   \              000000000000
   \              00000000    
   \   00005B31   000000000000       DC8 0, 0, 0, 0, 0, 0, 0, 0, 0, 0, 0, 0, 0, 0, 0, 0
   \              000000000000
   \              00000000    
   \   00005B41   000000000000       DC8 0, 0, 0, 0, 0, 0, 0, 0, 0, 0, 0, 0, 0, 0, 0, 0
   \              000000000000
   \              00000000    
   \   00005B51   000000000000       DC8 0, 0, 0, 0, 0, 0, 0, 0, 0, 0, 0, 0, 0, 0, 0, 0
   \              000000000000
   \              00000000    
   \   00005B61   000000000000       DC8 0, 0, 0, 0, 0, 0, 0, 0, 0, 0, 0, 0, 0, 0, 0, 0
   \              000000000000
   \              00000000    
   \   00005B71   000000000000       DC8 0, 0, 0, 0, 0, 0, 0, 0, 0, 0, 0, 0, 0, 0, 0, 0
   \              000000000000
   \              00000000    
   \   00005B81   000000000000       DC8 0, 0, 0, 0, 0, 0, 0, 0, 0, 0, 0, 0, 0, 0, 0, 0
   \              000000000000
   \              00000000    
   \   00005B91   000000000000       DC8 0, 0, 0, 0, 0, 0, 0, 0, 0, 0, 0, 0, 0, 0, 0, 0
   \              000000000000
   \              00000000    
   \   00005BA1   000000000000       DC8 0, 0, 0, 0, 0, 0, 0, 0, 0, 0, 0, 0, 0, 0, 0, 0
   \              000000000000
   \              00000000    
   \   00005BB1   000000000000       DC8 0, 0, 0, 0, 0, 0, 0, 0, 0, 0, 0, 0, 0, 0, 0, 0
   \              000000000000
   \              00000000    
   \   00005BC1   000000000000       DC8 0, 0, 0, 0, 0, 0, 0, 0, 0, 0, 0, 0, 0, 0, 0, 0
   \              000000000000
   \              00000000    
   \   00005BD1   000000000000       DC8 0, 0, 0, 0, 0, 0, 0, 0, 0, 0, 0, 0, 0, 0, 0, 0
   \              000000000000
   \              00000000    
   \   00005BE1   000000000000       DC8 0, 0, 0, 0, 0, 0, 0, 0, 0, 0, 0, 0, 0, 0, 0, 0
   \              000000000000
   \              00000000    
   \   00005BF1   000000000000       DC8 0, 0, 0, 0, 0, 0, 0, 0, 0, 0, 0, 0, 0, 0, 0, 0
   \              000000000000
   \              00000000    
   \   00005C01   000000000000       DC8 0, 0, 0, 0, 0, 0, 0, 0, 0, 0, 0, 0, 0, 0, 0, 0
   \              000000000000
   \              00000000    
   \   00005C11   000000000000       DC8 0, 0, 0, 0, 0, 0, 0, 0, 0, 0, 0, 0, 0, 0, 0, 0
   \              000000000000
   \              00000000    
   \   00005C21   000000000000       DC8 0, 0, 0, 0, 0, 0, 0, 0, 0, 0, 0, 0, 0, 0, 0, 0
   \              000000000000
   \              00000000    
   \   00005C31   000000000000       DC8 0, 0, 0, 0, 0, 0, 0, 0, 0, 0, 0, 0, 0, 0, 0, 0
   \              000000000000
   \              00000000    
   \   00005C41   000000000000       DC8 0, 0, 0, 0, 0, 0, 0, 0, 0, 0, 0, 0, 0, 0, 0, 0
   \              000000000000
   \              00000000    
   \   00005C51   000000000000       DC8 0, 0, 0, 0, 0, 0, 0, 0, 0, 0, 0, 0, 0, 0, 0, 0
   \              000000000000
   \              00000000    
   \   00005C61   000000000000       DC8 0, 0, 0, 0, 0, 0, 0, 0, 0, 0, 0, 0, 0, 0, 0, 0
   \              000000000000
   \              00000000    
   \   00005C71   000000000000       DC8 0, 0, 0, 0, 0, 0, 0, 0, 0, 0, 0, 0, 0, 0, 0, 0
   \              000000000000
   \              00000000    
   \   00005C81   000000000000       DC8 0, 0, 0, 0, 0, 0, 0, 0, 0, 0, 0, 0, 0, 0, 0, 0
   \              000000000000
   \              00000000    
   \   00005C91   000000000000       DC8 0, 0, 0, 0, 0, 0, 0, 0, 0, 0, 0, 0, 0, 0, 0, 0
   \              000000000000
   \              00000000    
   \   00005CA1   000000000000       DC8 0, 0, 0, 0, 0, 0, 0, 0, 0, 0, 0, 0, 0, 0, 0, 0
   \              000000000000
   \              00000000    
   \   00005CB1   000000000000       DC8 0, 0, 0, 0, 0, 0, 0, 0, 0, 0, 0, 0, 0, 0, 0, 0
   \              000000000000
   \              00000000    
   \   00005CC1   000000000000       DC8 0, 0, 0, 0, 0, 0, 0, 0, 0, 0, 0, 0, 0, 0, 0, 0
   \              000000000000
   \              00000000    
   \   00005CD1   000000000000       DC8 0, 0, 0, 0, 0, 0, 0, 0, 0, 0, 0, 0, 0, 0, 0, 0
   \              000000000000
   \              00000000    
   \   00005CE1   000000000000       DC8 0, 0, 0, 0, 0, 0, 0, 0, 0, 0, 0, 0, 0, 0, 0, 0
   \              000000000000
   \              00000000    
   \   00005CF1   000000000000       DC8 0, 0, 0, 0, 0, 0, 0, 0, 0, 0, 0, 0, 0, 0, 0, 0
   \              000000000000
   \              00000000    
   \   00005D01   000000000000       DC8 0, 0, 0, 0, 0, 0, 0, 0, 0, 0, 0, 0, 0, 0, 0, 0
   \              000000000000
   \              00000000    
   \   00005D11   000000000000       DC8 0, 0, 0, 0, 0, 0, 0, 0, 0, 0, 0, 0, 0, 0, 0, 0
   \              000000000000
   \              00000000    
   \   00005D21   000000000000       DC8 0, 0, 0, 0, 0, 0, 0, 0, 0, 0, 0, 0, 0, 0, 0, 0
   \              000000000000
   \              00000000    
   \   00005D31   000000000000       DC8 0, 0, 0, 0, 0, 0, 0, 0, 0, 0, 0, 0, 0, 0, 0, 0
   \              000000000000
   \              00000000    
   \   00005D41   000000000000       DC8 0, 0, 0, 0, 0, 0, 0, 0, 0, 0, 0, 0, 0, 0, 0, 0
   \              000000000000
   \              00000000    
   \   00005D51   000000000000       DC8 0, 0, 0, 0, 0, 0, 0, 0, 0, 0, 0, 0, 0, 0, 0, 0
   \              000000000000
   \              00000000    
   \   00005D61   000000000000       DC8 0, 0, 0, 0, 0, 0, 0, 0, 0, 0, 0, 0, 0, 0, 0, 0
   \              000000000000
   \              00000000    
   \   00005D71   000000000000       DC8 0, 0, 0, 0, 0, 0, 0, 0, 0, 0, 0, 0, 0, 0, 0, 0
   \              000000000000
   \              00000000    
   \   00005D81   000000000000       DC8 0, 0, 0, 0, 0, 0, 0, 0, 0, 0, 0, 0, 0, 0, 0, 0
   \              000000000000
   \              00000000    
   \   00005D91   000000000000       DC8 0, 0, 0, 0, 0, 0, 0, 0, 0, 0, 0, 0, 0, 0, 0, 0
   \              000000000000
   \              00000000    
   \   00005DA1   000000000000       DC8 0, 0, 0, 0, 0, 0, 0, 0, 0, 0, 0, 0, 0, 0, 0, 0
   \              000000000000
   \              00000000    
   \   00005DB1   000000000000       DC8 0, 0, 0, 0, 0, 0, 0, 0, 0, 0, 0, 0, 0, 0, 0, 0
   \              000000000000
   \              00000000    
   \   00005DC1   000000000000       DC8 0, 0, 0, 0, 0, 0, 0, 0, 0, 0, 0, 0, 0, 0, 0, 0
   \              000000000000
   \              00000000    
   \   00005DD1   000000000000       DC8 0, 0, 0, 0, 0, 0, 0, 0, 0, 0, 0, 0, 0, 0, 0, 0
   \              000000000000
   \              00000000    
   \   00005DE1   000000000000       DC8 0, 0, 0, 0, 0, 0, 0, 0, 0, 0, 0, 0, 0, 0, 0, 0
   \              000000000000
   \              00000000    
   \   00005DF1   000000000000       DC8 0, 0, 0, 0, 0, 0, 0, 0, 0, 0, 0, 0, 0, 0, 0, 0
   \              000000000000
   \              00000000    
   \   00005E01   000000000000       DC8 0, 0, 0, 0, 0, 0, 0, 0, 0, 0, 0, 0, 0, 0, 0, 0
   \              000000000000
   \              00000000    
   \   00005E11   000000000000       DC8 0, 0, 0, 0, 0, 0, 0, 0, 0, 0, 0, 0, 0, 0, 0, 0
   \              000000000000
   \              00000000    
   \   00005E21   000000000000       DC8 0, 0, 0, 0, 0, 0, 0, 0, 0, 0, 0, 0, 0, 0, 0, 0
   \              000000000000
   \              00000000    
   \   00005E31   000000000000       DC8 0, 0, 0, 0, 0, 0, 0, 0, 0, 0, 0, 0, 0, 0, 0, 0
   \              000000000000
   \              00000000    
   \   00005E41   000000000000       DC8 0, 0, 0, 0, 0, 0, 0, 0, 0, 0, 0, 0, 0, 0, 0, 0
   \              000000000000
   \              00000000    
   \   00005E51   000000000000       DC8 0, 0, 0, 0, 0, 0, 0, 0, 0, 0, 0, 0, 0, 0, 0, 0
   \              000000000000
   \              00000000    
   \   00005E61   000000000000       DC8 0, 0, 0, 0, 0, 0, 0, 0, 0, 0, 0, 0, 0, 0, 0, 0
   \              000000000000
   \              00000000    
   \   00005E71   000000000000       DC8 0, 0, 0, 0, 0, 0, 0, 0, 0, 0, 0, 0, 0, 0, 0, 0
   \              000000000000
   \              00000000    
   \   00005E81   000000000000       DC8 0, 0, 0, 0, 0, 0, 0, 0, 0, 0, 0, 0, 0, 0, 0, 0
   \              000000000000
   \              00000000    
   \   00005E91   000000000000       DC8 0, 0, 0, 0, 0, 0, 0, 0, 0, 0, 0, 0, 0, 0, 0, 0
   \              000000000000
   \              00000000    
   \   00005EA1   000000000000       DC8 0, 0, 0, 0, 0, 0, 0, 0, 0, 0, 0, 0, 0, 0, 0, 0
   \              000000000000
   \              00000000    
   \   00005EB1   000000000000       DC8 0, 0, 0, 0, 0, 0, 0, 0, 0, 0, 0, 0, 0, 0, 0, 0
   \              000000000000
   \              00000000    
   \   00005EC1   000000000000       DC8 0, 0, 0, 0, 0, 0, 0, 0, 0, 0, 0, 0, 0, 0, 0, 0
   \              000000000000
   \              00000000    
   \   00005ED1   000000000000       DC8 0, 0, 0, 0, 0, 0, 0, 0, 0, 0, 0, 0, 0, 0, 0, 0
   \              000000000000
   \              00000000    
   \   00005EE1   000000000000       DC8 0, 0, 0, 0, 0, 0, 0, 0, 0, 0, 0, 0, 0, 0, 0, 0
   \              000000000000
   \              00000000    
   \   00005EF1   000000000000       DC8 0, 0, 0, 0, 0, 0, 0, 0, 0, 0, 0, 0, 0, 0, 0, 0
   \              000000000000
   \              00000000    
   \   00005F01   000000000000       DC8 0, 0, 0, 0, 0, 0, 0, 0, 0, 0, 0, 0, 0, 0, 0, 0
   \              000000000000
   \              00000000    
   \   00005F11   000000000000       DC8 0, 0, 0, 0, 0, 0, 0, 0, 0, 0, 0, 0, 0, 0, 0, 0
   \              000000000000
   \              00000000    
   \   00005F21   000000000000       DC8 0, 0, 0, 0, 0, 0, 0, 0, 0, 0, 0, 0, 0, 0, 0, 0
   \              000000000000
   \              00000000    
   \   00005F31   000000000000       DC8 0, 0, 0, 0, 0, 0, 0, 0, 0, 0, 0, 0, 0, 0, 0, 0
   \              000000000000
   \              00000000    
   \   00005F41   000000000000       DC8 0, 0, 0, 0, 0, 0, 0, 0, 0, 0, 0, 0, 0, 0, 0, 0
   \              000000000000
   \              00000000    
   \   00005F51   000000000000       DC8 0, 0, 0, 0, 0, 0, 0, 0, 0, 0, 0, 0, 0, 0, 0, 0
   \              000000000000
   \              00000000    
   \   00005F61   000000000000       DC8 0, 0, 0, 0, 0, 0, 0, 0, 0, 0, 0, 0, 0, 0, 0, 0
   \              000000000000
   \              00000000    
   \   00005F71   000000000000       DC8 0, 0, 0, 0, 0, 0, 0, 0, 0, 0, 0, 0, 0, 0, 0, 0
   \              000000000000
   \              00000000    
   \   00005F81   000000000000       DC8 0, 0, 0, 0, 0, 0, 0, 0, 0, 0, 0, 0, 0, 0, 0, 0
   \              000000000000
   \              00000000    
   \   00005F91   000000000000       DC8 0, 0, 0, 0, 0, 0, 0, 0, 0, 0, 0, 0, 0, 0, 0, 0
   \              000000000000
   \              00000000    
   \   00005FA1   000000000000       DC8 0, 0, 0, 0, 0, 0, 0, 0, 0, 0, 0, 0, 0, 0, 0, 0
   \              000000000000
   \              00000000    
   \   00005FB1   000000000000       DC8 0, 0, 0, 0, 0, 0, 0, 0, 0, 0, 0, 0, 0, 0, 0, 0
   \              000000000000
   \              00000000    
   \   00005FC1   000000000000       DC8 0, 0, 0, 0, 0, 0, 0, 0, 0, 0, 0, 0, 0, 0, 0, 0
   \              000000000000
   \              00000000    
   \   00005FD1   000000000000       DC8 0, 0, 0, 0, 0, 0, 0, 0, 0, 0, 0, 0, 0, 0, 0, 0
   \              000000000000
   \              00000000    
   \   00005FE1   000000000000       DC8 0, 0, 0, 0, 0, 0, 0, 0, 0, 0, 0, 0, 0, 0, 0, 0
   \              000000000000
   \              00000000    
   \   00005FF1   000000000000       DC8 0, 0, 0, 0, 0, 0, 0, 0, 0, 0, 0, 0, 0, 0, 0, 0
   \              000000000000
   \              00000000    
   \   00006001   000000000000       DC8 0, 0, 0, 0, 0, 0, 0, 0, 0, 0, 0, 0, 0, 0, 0, 0
   \              000000000000
   \              00000000    
   \   00006011   000000000000       DC8 0, 0, 0, 0, 0, 0, 0, 0, 0, 0, 0, 0, 0, 0, 0, 0
   \              000000000000
   \              00000000    
   \   00006021   000000000000       DC8 0, 0, 0, 0, 0, 0, 0, 0, 0, 0, 0, 0, 0, 0, 0, 0
   \              000000000000
   \              00000000    
   \   00006031   000000000000       DC8 0, 0, 0, 0, 0, 0, 0, 0, 0, 0, 0, 0, 0, 0, 0, 0
   \              000000000000
   \              00000000    
   \   00006041   000000000000       DC8 0, 0, 0, 0, 0, 0, 0, 0, 0, 0, 0, 0, 0, 0, 0, 0
   \              000000000000
   \              00000000    
   \   00006051   000000000000       DC8 0, 0, 0, 0, 0, 0, 0, 0, 0, 0, 0, 0, 0, 0, 0, 0
   \              000000000000
   \              00000000    
   \   00006061   000000000000       DC8 0, 0, 0, 0, 0, 0, 0, 0, 0, 0, 0, 0, 0, 0, 0, 0
   \              000000000000
   \              00000000    
   \   00006071   000000000000       DC8 0, 0, 0, 0, 0, 0, 0, 0, 0, 0, 0, 0, 0, 0, 0, 0
   \              000000000000
   \              00000000    
   \   00006081   000000000000       DC8 0, 0, 0, 0, 0, 0, 0, 0, 0, 0, 0, 0, 0, 0, 0, 0
   \              000000000000
   \              00000000    
   \   00006091   000000000000       DC8 0, 0, 0, 0, 0, 0, 0, 0, 0, 0, 0, 0, 0, 0, 0, 0
   \              000000000000
   \              00000000    
   \   000060A1   000000000000       DC8 0, 0, 0, 0, 0, 0, 0, 0, 0, 0, 0, 0, 0, 0, 0, 0
   \              000000000000
   \              00000000    
   \   000060B1   000000000000       DC8 0, 0, 0, 0, 0, 0, 0, 0, 0, 0, 0, 0, 0, 0, 0, 0
   \              000000000000
   \              00000000    
   \   000060C1   000000000000       DC8 0, 0, 0, 0, 0, 0, 0, 0, 0, 0, 0, 0, 0, 0, 0, 0
   \              000000000000
   \              00000000    
   \   000060D1   000000000000       DC8 0, 0, 0, 0, 0, 0, 0, 0, 0, 0, 0, 0, 0, 0, 0, 0
   \              000000000000
   \              00000000    
   \   000060E1   000000000000       DC8 0, 0, 0, 0, 0, 0, 0, 0, 0, 0, 0, 0, 0, 0, 0, 0
   \              000000000000
   \              00000000    
   \   000060F1   000000000000       DC8 0, 0, 0, 0, 0, 0, 0, 0, 0, 0, 0, 0, 0, 0, 0, 0
   \              000000000000
   \              00000000    
   \   00006101   000000000000       DC8 0, 0, 0, 0, 0, 0, 0, 0, 0, 0, 0, 0, 0, 0, 0, 0
   \              000000000000
   \              00000000    
   \   00006111   000000000000       DC8 0, 0, 0, 0, 0, 0, 0, 0, 0, 0, 0, 0, 0, 0, 0, 0
   \              000000000000
   \              00000000    
   \   00006121   000000000000       DC8 0, 0, 0, 0, 0, 0, 0, 0, 0, 0, 0, 0, 0, 0, 0, 0
   \              000000000000
   \              00000000    
   \   00006131   000000000000       DC8 0, 0, 0, 0, 0, 0, 0, 0, 0, 0, 0, 0, 0, 0, 0, 0
   \              000000000000
   \              00000000    
   \   00006141   000000000000       DC8 0, 0, 0, 0, 0, 0, 0, 0, 0, 0, 0, 0, 0, 0, 0, 0
   \              000000000000
   \              00000000    
   \   00006151   000000000000       DC8 0, 0, 0, 0, 0, 0, 0, 0, 0, 0, 0, 0, 0, 0, 0, 0
   \              000000000000
   \              00000000    
   \   00006161   000000000000       DC8 0, 0, 0, 0, 0, 0, 0, 0, 0, 0, 0, 0, 0, 0, 0, 0
   \              000000000000
   \              00000000    
   \   00006171   000000000000       DC8 0, 0, 0, 0, 0, 0, 0, 0, 0, 0, 0, 0, 0, 0, 0, 0
   \              000000000000
   \              00000000    
   \   00006181   000000000000       DC8 0, 0, 0, 0, 0, 0, 0, 0, 0, 0, 0, 0, 0, 0, 0, 0
   \              000000000000
   \              00000000    
   \   00006191   000000000000       DC8 0, 0, 0, 0, 0, 0, 0, 0, 0, 0, 0, 0, 0, 0, 0, 0
   \              000000000000
   \              00000000    
   \   000061A1   000000000000       DC8 0, 0, 0, 0, 0, 0, 0, 0, 0, 0, 0, 0, 0, 0, 0, 0
   \              000000000000
   \              00000000    
   \   000061B1   000000000000       DC8 0, 0, 0, 0, 0, 0, 0, 0, 0, 0, 0, 0, 0, 0, 0, 0
   \              000000000000
   \              00000000    
   \   000061C1   000000000000       DC8 0, 0, 0, 0, 0, 0, 0, 0, 0, 0, 0, 0, 0, 0, 0, 0
   \              000000000000
   \              00000000    
   \   000061D1   000000000000       DC8 0, 0, 0, 0, 0, 0, 0, 0, 0, 0, 0, 0, 0, 0, 0, 0
   \              000000000000
   \              00000000    
   \   000061E1   000000000000       DC8 0, 0, 0, 0, 0, 0, 0, 0, 0, 0, 0, 0, 0, 0, 0, 0
   \              000000000000
   \              00000000    
   \   000061F1   000000000000       DC8 0, 0, 0, 0, 0, 0, 0, 0, 0, 0, 0, 0, 0, 0, 0, 0
   \              000000000000
   \              00000000    
   \   00006201   000000000000       DC8 0, 0, 0, 0, 0, 0, 0, 0, 0, 0, 0, 0, 0, 0, 0, 0
   \              000000000000
   \              00000000    
   \   00006211   000000000000       DC8 0, 0, 0, 0, 0, 0, 0, 0, 0, 0, 0, 0, 0, 0, 0, 0
   \              000000000000
   \              00000000    
   \   00006221   000000000000       DC8 0, 0, 0, 0, 0, 0, 0, 0, 0, 0, 0, 0, 0, 0, 0, 0
   \              000000000000
   \              00000000    
   \   00006231   000000000000       DC8 0, 0, 0, 0, 0, 0, 0, 0, 0, 0, 0, 0, 0, 0, 0, 0
   \              000000000000
   \              00000000    
   \   00006241   000000000000       DC8 0, 0, 0, 0, 0, 0, 0, 0, 0, 0, 0, 0, 0, 0, 0, 0
   \              000000000000
   \              00000000    
   \   00006251   000000000000       DC8 0, 0, 0, 0, 0, 0, 0, 0, 0, 0, 0, 0, 0, 0, 0, 0
   \              000000000000
   \              00000000    
   \   00006261   000000000000       DC8 0, 0, 0, 0, 0, 0, 0, 0, 0, 0, 0, 0, 0, 0, 0, 0
   \              000000000000
   \              00000000    
   \   00006271   000000000000       DC8 0, 0, 0, 0, 0, 0, 0, 0, 0, 0, 0, 0, 0, 0, 0, 0
   \              000000000000
   \              00000000    
   \   00006281   000000000000       DC8 0, 0, 0, 0, 0, 0, 0, 0, 0, 0, 0, 0, 0, 0, 0, 0
   \              000000000000
   \              00000000    
   \   00006291   000000000000       DC8 0, 0, 0, 0, 0, 0, 0, 0, 0, 0, 0, 0, 0, 0, 0, 0
   \              000000000000
   \              00000000    
   \   000062A1   000000000000       DC8 0, 0, 0, 0, 0, 0, 0, 0, 0, 0, 0, 0, 0, 0, 0, 0
   \              000000000000
   \              00000000    
   \   000062B1   000000000000       DC8 0, 0, 0, 0, 0, 0, 0, 0, 0, 0, 0, 0, 0, 0, 0, 0
   \              000000000000
   \              00000000    
   \   000062C1   000000000000       DC8 0, 0, 0, 0, 0, 0, 0, 0, 0, 0, 0, 0, 0, 0, 0, 0
   \              000000000000
   \              00000000    
   \   000062D1   000000000000       DC8 0, 0, 0, 0, 0, 0, 0, 0, 0, 0, 0, 0, 0, 0, 0, 0
   \              000000000000
   \              00000000    
   \   000062E1   000000000000       DC8 0, 0, 0, 0, 0, 0, 0, 0, 0, 0, 0, 0, 0, 0, 0, 0
   \              000000000000
   \              00000000    
   \   000062F1   000000000000       DC8 0, 0, 0, 0, 0, 0, 0, 0, 0, 0, 0, 0, 0, 0, 0, 0
   \              000000000000
   \              00000000    
   \   00006301   000000000000       DC8 0, 0, 0, 0, 0, 0, 0, 0, 0, 0, 0, 0, 0, 0, 0, 0
   \              000000000000
   \              00000000    
   \   00006311   000000000000       DC8 0, 0, 0, 0, 0, 0, 0, 0, 0, 0, 0, 0, 0, 0, 0, 0
   \              000000000000
   \              00000000    
   \   00006321   000000000000       DC8 0, 0, 0, 0, 0, 0, 0, 0, 0, 0, 0, 0, 0, 0, 0, 0
   \              000000000000
   \              00000000    
   \   00006331   000000000000       DC8 0, 0, 0, 0, 0, 0, 0, 0, 0, 0, 0, 0, 0, 0, 0, 0
   \              000000000000
   \              00000000    
   \   00006341   000000000000       DC8 0, 0, 0, 0, 0, 0, 0, 0, 0, 0, 0, 0, 0, 0, 0, 0
   \              000000000000
   \              00000000    
   \   00006351   000000000000       DC8 0, 0, 0, 0, 0, 0, 0, 0, 0, 0, 0, 0, 0, 0, 0, 0
   \              000000000000
   \              00000000    
   \   00006361   000000000000       DC8 0, 0, 0, 0, 0, 0, 0, 0, 0, 0, 0, 0, 0, 0, 0, 0
   \              000000000000
   \              00000000    
   \   00006371   000000000000       DC8 0, 0, 0, 0, 0, 0, 0, 0, 0, 0, 0, 0, 0, 0, 0, 0
   \              000000000000
   \              00000000    
   \   00006381   000000000000       DC8 0, 0, 0, 0, 0, 0, 0, 0, 0, 0, 0, 0, 0, 0, 0, 0
   \              000000000000
   \              00000000    
   \   00006391   000000000000       DC8 0, 0, 0, 0, 0, 0, 0, 0, 0, 0, 0, 0, 0, 0, 0, 0
   \              000000000000
   \              00000000    
   \   000063A1   000000000000       DC8 0, 0, 0, 0, 0, 0, 0, 0, 0, 0, 0, 0, 0, 0, 0, 0
   \              000000000000
   \              00000000    
   \   000063B1   000000000000       DC8 0, 0, 0, 0, 0, 0, 0, 0, 0, 0, 0, 0, 0, 0, 0, 0
   \              000000000000
   \              00000000    
   \   000063C1   000000000000       DC8 0, 0, 0, 0, 0, 0, 0, 0, 0, 0, 0, 0, 0, 0, 0, 0
   \              000000000000
   \              00000000    
   \   000063D1   000000000000       DC8 0, 0, 0, 0, 0, 0, 0, 0, 0, 0, 0, 0, 0, 0, 0, 0
   \              000000000000
   \              00000000    
   \   000063E1   000000000000       DC8 0, 0, 0, 0, 0, 0, 0, 0, 0, 0, 0, 0, 0, 0, 0, 0
   \              000000000000
   \              00000000    
   \   000063F1   000000000000       DC8 0, 0, 0, 0, 0, 0, 0, 0, 0, 0, 0, 0, 0, 0, 0, 0
   \              000000000000
   \              00000000    
   \   00006401   000000000000       DC8 0, 0, 0, 0, 0, 0, 0, 0, 0, 0, 0, 0, 0, 0, 0, 0
   \              000000000000
   \              00000000    
   \   00006411   000000000000       DC8 0, 0, 0, 0, 0, 0, 0, 0, 0, 0, 0, 0, 0, 0, 0, 0
   \              000000000000
   \              00000000    
   \   00006421   000000000000       DC8 0, 0, 0, 0, 0, 0, 0, 0, 0, 0, 0, 0, 0, 0, 0, 0
   \              000000000000
   \              00000000    
   \   00006431   000000000000       DC8 0, 0, 0, 0, 0, 0, 0, 0, 0, 0, 0, 0, 0, 0, 0, 0
   \              000000000000
   \              00000000    
   \   00006441   000000000000       DC8 0, 0, 0, 0, 0, 0, 0, 0, 0, 0, 0, 0, 0, 0, 0, 0
   \              000000000000
   \              00000000    
   \   00006451   000000000000       DC8 0, 0, 0, 0, 0, 0, 0, 0, 0, 0, 0, 0, 0, 0, 0, 0
   \              000000000000
   \              00000000    
   \   00006461   000000000000       DC8 0, 0, 0, 0, 0, 0, 0, 0, 0, 0, 0, 0, 0, 0, 0, 0
   \              000000000000
   \              00000000    
   \   00006471   000000000000       DC8 0, 0, 0, 0, 0, 0, 0, 0, 0, 0, 0, 0, 0, 0, 0, 0
   \              000000000000
   \              00000000    
   \   00006481   000000000000       DC8 0, 0, 0, 0, 0, 0, 0, 0, 0, 0, 0, 0, 0, 0, 0, 0
   \              000000000000
   \              00000000    
   \   00006491   000000000000       DC8 0, 0, 0, 0, 0, 0, 0, 0, 0, 0, 0, 0, 0, 0, 0, 0
   \              000000000000
   \              00000000    
   \   000064A1   000000000000       DC8 0, 0, 0, 0, 0, 0, 0, 0, 0, 0, 0, 0, 0, 0, 0, 0
   \              000000000000
   \              00000000    
   \   000064B1   000000000000       DC8 0, 0, 0, 0, 0, 0, 0, 0, 0, 0, 0, 0, 0, 0, 0, 0
   \              000000000000
   \              00000000    
   \   000064C1   000000000000       DC8 0, 0, 0, 0, 0, 0, 0, 0, 0, 0, 0, 0, 0, 0, 0, 0
   \              000000000000
   \              00000000    
   \   000064D1   000000000000       DC8 0, 0, 0, 0, 0, 0, 0, 0, 0, 0, 0, 0, 0, 0, 0, 0
   \              000000000000
   \              00000000    
   \   000064E1   000000000000       DC8 0, 0, 0, 0, 0, 0, 0, 0, 0, 0, 0, 0, 0, 0, 0, 0
   \              000000000000
   \              00000000    
   \   000064F1   000000000000       DC8 0, 0, 0, 0, 0, 0, 0, 0, 0, 0, 0, 0, 0, 0, 0, 0
   \              000000000000
   \              00000000    
   \   00006501   000000000000       DC8 0, 0, 0, 0, 0, 0, 0, 0, 0, 0, 0, 0, 0, 0, 0, 0
   \              000000000000
   \              00000000    
   \   00006511   000000000000       DC8 0, 0, 0, 0, 0, 0, 0, 0, 0, 0, 0, 0, 0, 0, 0, 0
   \              000000000000
   \              00000000    
   \   00006521   000000000000       DC8 0, 0, 0, 0, 0, 0, 0, 0, 0, 0, 0, 0, 0, 0, 0, 0
   \              000000000000
   \              00000000    
   \   00006531   000000000000       DC8 0, 0, 0, 0, 0, 0, 0, 0, 0, 0, 0, 0, 0, 0, 0, 0
   \              000000000000
   \              00000000    
   \   00006541   000000000000       DC8 0, 0, 0, 0, 0, 0, 0, 0, 0, 0, 0, 0, 0, 0, 0, 0
   \              000000000000
   \              00000000    
   \   00006551   000000000000       DC8 0, 0, 0, 0, 0, 0, 0, 0, 0, 0, 0, 0, 0, 0, 0, 0
   \              000000000000
   \              00000000    
   \   00006561   000000000000       DC8 0, 0, 0, 0, 0, 0, 0, 0, 0, 0, 0, 0, 0, 0, 0, 0
   \              000000000000
   \              00000000    
   \   00006571   000000000000       DC8 0, 0, 0, 0, 0, 0, 0, 0, 0, 0, 0, 0, 0, 0, 0, 0
   \              000000000000
   \              00000000    
   \   00006581   000000000000       DC8 0, 0, 0, 0, 0, 0, 0, 0, 0, 0, 0, 0, 0, 0, 0, 0
   \              000000000000
   \              00000000    
   \   00006591   000000000000       DC8 0, 0, 0, 0, 0, 0, 0, 0, 0, 0, 0, 0, 0, 0, 0, 0
   \              000000000000
   \              00000000    
   \   000065A1   000000000000       DC8 0, 0, 0, 0, 0, 0, 0, 0, 0, 0, 0, 0, 0, 0, 0, 0
   \              000000000000
   \              00000000    
   \   000065B1   000000000000       DC8 0, 0, 0, 0, 0, 0, 0, 0, 0, 0, 0, 0, 0, 0, 0, 0
   \              000000000000
   \              00000000    
   \   000065C1   000000000000       DC8 0, 0, 0, 0, 0, 0, 0, 0, 0, 0, 0, 0, 0, 0, 0, 0
   \              000000000000
   \              00000000    
   \   000065D1   000000000000       DC8 0, 0, 0, 0, 0, 0, 0, 0, 0, 0, 0, 0, 0, 0, 0, 0
   \              000000000000
   \              00000000    
   \   000065E1   000000000000       DC8 0, 0, 0, 0, 0, 0, 0, 0, 0, 0, 0, 0, 0, 0, 0, 0
   \              000000000000
   \              00000000    
   \   000065F1   000000000000       DC8 0, 0, 0, 0, 0, 0, 0, 0, 0, 0, 0, 0, 0, 0, 0, 0
   \              000000000000
   \              00000000    
   \   00006601   000000000000       DC8 0, 0, 0, 0, 0, 0, 0, 0, 0, 0, 0, 0, 0, 0, 0, 0
   \              000000000000
   \              00000000    
   \   00006611   000000000000       DC8 0, 0, 0, 0, 0, 0, 0, 0, 0, 0, 0, 0, 0, 0, 0, 0
   \              000000000000
   \              00000000    
   \   00006621   000000000000       DC8 0, 0, 0, 0, 0, 0, 0, 0, 0, 0, 0, 0, 0, 0, 0, 0
   \              000000000000
   \              00000000    
   \   00006631   000000000000       DC8 0, 0, 0, 0, 0, 0, 0, 0, 0, 0, 0, 0, 0, 0, 0, 0
   \              000000000000
   \              00000000    
   \   00006641   000000000000       DC8 0, 0, 0, 0, 0, 0, 0, 0, 0, 0, 0, 0, 0, 0, 0, 0
   \              000000000000
   \              00000000    
   \   00006651   000000000000       DC8 0, 0, 0, 0, 0, 0, 0, 0, 0, 0, 0, 0, 0, 0, 0, 0
   \              000000000000
   \              00000000    
   \   00006661   000000000000       DC8 0, 0, 0, 0, 0, 0, 0, 0, 0, 0, 0, 0, 0, 0, 0, 0
   \              000000000000
   \              00000000    
   \   00006671   000000000000       DC8 0, 0, 0, 0, 0, 0, 0, 0, 0, 0, 0, 0, 0, 0, 0, 0
   \              000000000000
   \              00000000    
   \   00006681   000000000000       DC8 0, 0, 0, 0, 0, 0, 0, 0, 0, 0, 0, 0, 0, 0, 0, 0
   \              000000000000
   \              00000000    
   \   00006691   000000000000       DC8 0, 0, 0, 0, 0, 0, 0, 0, 0, 0, 0, 0, 0, 0, 0, 0
   \              000000000000
   \              00000000    
   \   000066A1   000000000000       DC8 0, 0, 0, 0, 0, 0, 0, 0, 0, 0, 0, 0, 0, 0, 0, 0
   \              000000000000
   \              00000000    
   \   000066B1   000000000000       DC8 0, 0, 0, 0, 0, 0, 0, 0, 0, 0, 0, 0, 0, 0, 0, 0
   \              000000000000
   \              00000000    
   \   000066C1   000000000000       DC8 0, 0, 0, 0, 0, 0, 0, 0, 0, 0, 0, 0, 0, 0, 0, 0
   \              000000000000
   \              00000000    
   \   000066D1   000000000000       DC8 0, 0, 0, 0, 0, 0, 0, 0, 0, 0, 0, 0, 0, 0, 0, 0
   \              000000000000
   \              00000000    
   \   000066E1   000000000000       DC8 0, 0, 0, 0, 0, 0, 0, 0, 0, 0, 0, 0, 0, 0, 0, 0
   \              000000000000
   \              00000000    
   \   000066F1   000000000000       DC8 0, 0, 0, 0, 0, 0, 0, 0, 0, 0, 0, 0, 0, 0, 0, 0
   \              000000000000
   \              00000000    
   \   00006701   000000000000       DC8 0, 0, 0, 0, 0, 0, 0, 0, 0, 0, 0, 0, 0, 0, 0, 0
   \              000000000000
   \              00000000    
   \   00006711   000000000000       DC8 0, 0, 0, 0, 0, 0, 0, 0, 0, 0, 0, 0, 0, 0, 0, 0
   \              000000000000
   \              00000000    
   \   00006721   000000000000       DC8 0, 0, 0, 0, 0, 0, 0, 0, 0, 0, 0, 0, 0, 0, 0, 0
   \              000000000000
   \              00000000    
   \   00006731   000000000000       DC8 0, 0, 0, 0, 0, 0, 0, 0, 0, 0, 0, 0, 0, 0, 0, 0
   \              000000000000
   \              00000000    
   \   00006741   000000000000       DC8 0, 0, 0, 0, 0, 0, 0, 0, 0, 0, 0, 0, 0, 0, 0, 0
   \              000000000000
   \              00000000    
   \   00006751   000000000000       DC8 0, 0, 0, 0, 0, 0, 0, 0, 0, 0, 0, 0, 0, 0, 0, 0
   \              000000000000
   \              00000000    
   \   00006761   000000000000       DC8 0, 0, 0, 0, 0, 0, 0, 0, 0, 0, 0, 0, 0, 0, 0, 0
   \              000000000000
   \              00000000    
   \   00006771   000000000000       DC8 0, 0, 0, 0, 0, 0, 0, 0, 0, 0, 0, 0, 0, 0, 0, 0
   \              000000000000
   \              00000000    
   \   00006781   000000000000       DC8 0, 0, 0, 0, 0, 0, 0, 0, 0, 0, 0, 0, 0, 0, 0, 0
   \              000000000000
   \              00000000    
   \   00006791   000000000000       DC8 0, 0, 0, 0, 0, 0, 0, 0, 0, 0, 0, 0, 0, 0, 0, 0
   \              000000000000
   \              00000000    
   \   000067A1   000000000000       DC8 0, 0, 0, 0, 0, 0, 0, 0, 0, 0, 0, 0, 0, 0, 0, 0
   \              000000000000
   \              00000000    
   \   000067B1   000000000000       DC8 0, 0, 0, 0, 0, 0, 0, 0, 0, 0, 0, 0, 0, 0, 0, 0
   \              000000000000
   \              00000000    
   \   000067C1   000000000000       DC8 0, 0, 0, 0, 0, 0, 0, 0, 0, 0, 0, 0, 0, 0, 0, 0
   \              000000000000
   \              00000000    
   \   000067D1   000000000000       DC8 0, 0, 0, 0, 0, 0, 0, 0, 0, 0, 0, 0, 0, 0, 0, 0
   \              000000000000
   \              00000000    
   \   000067E1   000000000000       DC8 0, 0, 0, 0, 0, 0, 0, 0, 0, 0, 0, 0, 0, 0, 0, 0
   \              000000000000
   \              00000000    
   \   000067F1   000000000000       DC8 0, 0, 0, 0, 0, 0, 0, 0, 0, 0, 0, 0, 0, 0, 0, 0
   \              000000000000
   \              00000000    
   \   00006801   000000000000       DC8 0, 0, 0, 0, 0, 0, 0, 0, 0, 0, 0, 0, 0, 0, 0, 0
   \              000000000000
   \              00000000    
   \   00006811   000000000000       DC8 0, 0, 0, 0, 0, 0, 0, 0, 0, 0, 0, 0, 0, 0, 0, 0
   \              000000000000
   \              00000000    
   \   00006821   000000000000       DC8 0, 0, 0, 0, 0, 0, 0, 0, 0, 0, 0, 0, 0, 0, 0, 0
   \              000000000000
   \              00000000    
   \   00006831   000000000000       DC8 0, 0, 0, 0, 0, 0, 0, 0, 0, 0, 0, 0, 0, 0, 0, 0
   \              000000000000
   \              00000000    
   \   00006841   000000000000       DC8 0, 0, 0, 0, 0, 0, 0, 0, 0, 0, 0, 0, 0, 0, 0, 0
   \              000000000000
   \              00000000    
   \   00006851   000000000000       DC8 0, 0, 0, 0, 0, 0, 0, 0, 0, 0, 0, 0, 0, 0, 0, 0
   \              000000000000
   \              00000000    
   \   00006861   000000000000       DC8 0, 0, 0, 0, 0, 0, 0, 0, 0, 0, 0, 0, 0, 0, 0, 0
   \              000000000000
   \              00000000    
   \   00006871   000000000000       DC8 0, 0, 0, 0, 0, 0, 0, 0, 0, 0, 0, 0, 0, 0, 0, 0
   \              000000000000
   \              00000000    
   \   00006881   000000000000       DC8 0, 0, 0, 0, 0, 0, 0, 0, 0, 0, 0, 0, 0, 0, 0, 0
   \              000000000000
   \              00000000    
   \   00006891   000000000000       DC8 0, 0, 0, 0, 0, 0, 0, 0, 0, 0, 0, 0, 0, 0, 0, 0
   \              000000000000
   \              00000000    
   \   000068A1   000000000000       DC8 0, 0, 0, 0, 0, 0, 0, 0, 0, 0, 0, 0, 0, 0, 0, 0
   \              000000000000
   \              00000000    
   \   000068B1   000000000000       DC8 0, 0, 0, 0, 0, 0, 0, 0, 0, 0, 0, 0, 0, 0, 0, 0
   \              000000000000
   \              00000000    
   \   000068C1   000000000000       DC8 0, 0, 0, 0, 0, 0, 0, 0, 0, 0, 0, 0, 0, 0, 0, 0
   \              000000000000
   \              00000000    
   \   000068D1   000000000000       DC8 0, 0, 0, 0, 0, 0, 0, 0, 0, 0, 0, 0, 0, 0, 0, 0
   \              000000000000
   \              00000000    
   \   000068E1   000000000000       DC8 0, 0, 0, 0, 0, 0, 0, 0, 0, 0, 0, 0, 0, 0, 0, 0
   \              000000000000
   \              00000000    
   \   000068F1   000000000000       DC8 0, 0, 0, 0, 0, 0, 0, 0, 0, 0, 0, 0, 0, 0, 0, 0
   \              000000000000
   \              00000000    
   \   00006901   000000000000       DC8 0, 0, 0, 0, 0, 0, 0, 0, 0, 0, 0, 0, 0, 0, 0, 0
   \              000000000000
   \              00000000    
   \   00006911   000000000000       DC8 0, 0, 0, 0, 0, 0, 0, 0, 0, 0, 0, 0, 0, 0, 0, 0
   \              000000000000
   \              00000000    
   \   00006921   000000000000       DC8 0, 0, 0, 0, 0, 0, 0, 0, 0, 0, 0, 0, 0, 0, 0, 0
   \              000000000000
   \              00000000    
   \   00006931   000000000000       DC8 0, 0, 0, 0, 0, 0, 0, 0, 0, 0, 0, 0, 0, 0, 0, 0
   \              000000000000
   \              00000000    
   \   00006941   000000000000       DC8 0, 0, 0, 0, 0, 0, 0, 0, 0, 0, 0, 0, 0, 0, 0, 0
   \              000000000000
   \              00000000    
   \   00006951   000000000000       DC8 0, 0, 0, 0, 0, 0, 0, 0, 0, 0, 0, 0, 0, 0, 0, 0
   \              000000000000
   \              00000000    
   \   00006961   000000000000       DC8 0, 0, 0, 0, 0, 0, 0, 0, 0, 0, 0, 0, 0, 0, 0, 0
   \              000000000000
   \              00000000    
   \   00006971   000000000000       DC8 0, 0, 0, 0, 0, 0, 0, 0, 0, 0, 0, 0, 0, 0, 0, 0
   \              000000000000
   \              00000000    
   \   00006981   000000000000       DC8 0, 0, 0, 0, 0, 0, 0, 0, 0, 0, 0, 0, 0, 0, 0, 0
   \              000000000000
   \              00000000    
   \   00006991   000000000000       DC8 0, 0, 0, 0, 0, 0, 0, 0, 0, 0, 0, 0, 0, 0, 0, 0
   \              000000000000
   \              00000000    
   \   000069A1   000000000000       DC8 0, 0, 0, 0, 0, 0, 0, 0, 0, 0, 0, 0, 0, 0, 0, 0
   \              000000000000
   \              00000000    
   \   000069B1   000000000000       DC8 0, 0, 0, 0, 0, 0, 0, 0, 0, 0, 0, 0, 0, 0, 0, 0
   \              000000000000
   \              00000000    
   \   000069C1   000000000000       DC8 0, 0, 0, 0, 0, 0, 0, 0, 0, 0, 0, 0, 0, 0, 0, 0
   \              000000000000
   \              00000000    
   \   000069D1   000000000000       DC8 0, 0, 0, 0, 0, 0, 0, 0, 0, 0, 0, 0, 0, 0, 0, 0
   \              000000000000
   \              00000000    
   \   000069E1   000000000000       DC8 0, 0, 0, 0, 0, 0, 0, 0, 0, 0, 0, 0, 0, 0, 0, 0
   \              000000000000
   \              00000000    
   \   000069F1   000000000000       DC8 0, 0, 0, 0, 0, 0, 0, 0, 0, 0, 0, 0, 0, 0, 0, 0
   \              000000000000
   \              00000000    
   \   00006A01   000000000000       DC8 0, 0, 0, 0, 0, 0, 0, 0, 0, 0, 0, 0, 0, 0, 0, 0
   \              000000000000
   \              00000000    
   \   00006A11   000000000000       DC8 0, 0, 0, 0, 0, 0, 0, 0, 0, 0, 0, 0, 0, 0, 0, 0
   \              000000000000
   \              00000000    
   \   00006A21   000000000000       DC8 0, 0, 0, 0, 0, 0, 0, 0, 0, 0, 0, 0, 0, 0, 0, 0
   \              000000000000
   \              00000000    
   \   00006A31   000000000000       DC8 0, 0, 0, 0, 0, 0, 0, 0, 0, 0, 0, 0, 0, 0, 0, 0
   \              000000000000
   \              00000000    
   \   00006A41   000000000000       DC8 0, 0, 0, 0, 0, 0, 0, 0, 0, 0, 0, 0, 0, 0, 0, 0
   \              000000000000
   \              00000000    
   \   00006A51   000000000000       DC8 0, 0, 0, 0, 0, 0, 0, 0, 0, 0, 0, 0, 0, 0, 0, 0
   \              000000000000
   \              00000000    
   \   00006A61   000000000000       DC8 0, 0, 0, 0, 0, 0, 0, 0, 0, 0, 0, 0, 0, 0, 0, 0
   \              000000000000
   \              00000000    
   \   00006A71   000000000000       DC8 0, 0, 0, 0, 0, 0, 0, 0, 0, 0, 0, 0, 0, 0, 0, 0
   \              000000000000
   \              00000000    
   \   00006A81   000000000000       DC8 0, 0, 0, 0, 0, 0, 0, 0, 0, 0, 0, 0, 0, 0, 0, 0
   \              000000000000
   \              00000000    
   \   00006A91   000000000000       DC8 0, 0, 0, 0, 0, 0, 0, 0, 0, 0, 0, 0, 0, 0, 0, 0
   \              000000000000
   \              00000000    
   \   00006AA1   000000000000       DC8 0, 0, 0, 0, 0, 0, 0, 0, 0, 0, 0, 0, 0, 0, 0, 0
   \              000000000000
   \              00000000    
   \   00006AB1   000000000000       DC8 0, 0, 0, 0, 0, 0, 0, 0, 0, 0, 0, 0, 0, 0, 0, 0
   \              000000000000
   \              00000000    
   \   00006AC1   000000000000       DC8 0, 0, 0, 0, 0, 0, 0, 0, 0, 0, 0, 0, 0, 0, 0, 0
   \              000000000000
   \              00000000    
   \   00006AD1   000000000000       DC8 0, 0, 0, 0, 0, 0, 0, 0, 0, 0, 0, 0, 0, 0, 0, 0
   \              000000000000
   \              00000000    
   \   00006AE1   000000000000       DC8 0, 0, 0, 0, 0, 0, 0, 0, 0, 0, 0, 0, 0, 0, 0, 0
   \              000000000000
   \              00000000    
   \   00006AF1   000000000000       DC8 0, 0, 0, 0, 0, 0, 0, 0, 0, 0, 0, 0, 0, 0, 0, 0
   \              000000000000
   \              00000000    
   \   00006B01   000000000000       DC8 0, 0, 0, 0, 0, 0, 0, 0, 0, 0, 0, 0, 0, 0, 0, 0
   \              000000000000
   \              00000000    
   \   00006B11   000000000000       DC8 0, 0, 0, 0, 0, 0, 0, 0, 0, 0, 0, 0, 0, 0, 0, 0
   \              000000000000
   \              00000000    
   \   00006B21   000000000000       DC8 0, 0, 0, 0, 0, 0, 0, 0, 0, 0, 0, 0, 0, 0, 0, 0
   \              000000000000
   \              00000000    
   \   00006B31   000000000000       DC8 0, 0, 0, 0, 0, 0, 0, 0, 0, 0, 0, 0, 0, 0, 0, 0
   \              000000000000
   \              00000000    
   \   00006B41   000000000000       DC8 0, 0, 0, 0, 0, 0, 0, 0, 0, 0, 0, 0, 0, 0, 0, 0
   \              000000000000
   \              00000000    
   \   00006B51   000000000000       DC8 0, 0, 0, 0, 0, 0, 0, 0, 0, 0, 0, 0, 0, 0, 0, 0
   \              000000000000
   \              00000000    
   \   00006B61   000000000000       DC8 0, 0, 0, 0, 0, 0, 0, 0, 0, 0, 0, 0, 0, 0, 0, 0
   \              000000000000
   \              00000000    
   \   00006B71   000000000000       DC8 0, 0, 0, 0, 0, 0, 0, 0, 0, 0, 0, 0, 0, 0, 0, 0
   \              000000000000
   \              00000000    
   \   00006B81   000000000000       DC8 0, 0, 0, 0, 0, 0, 0, 0, 0, 0, 0, 0, 0, 0, 0, 0
   \              000000000000
   \              00000000    
   \   00006B91   000000000000       DC8 0, 0, 0, 0, 0, 0, 0, 0, 0, 0, 0, 0, 0, 0, 0, 0
   \              000000000000
   \              00000000    
   \   00006BA1   000000000000       DC8 0, 0, 0, 0, 0, 0, 0, 0, 0, 0, 0, 0, 0, 0, 0, 0
   \              000000000000
   \              00000000    
   \   00006BB1   000000000000       DC8 0, 0, 0, 0, 0, 0, 0, 0, 0, 0, 0, 0, 0, 0, 0, 0
   \              000000000000
   \              00000000    
   \   00006BC1   000000000000       DC8 0, 0, 0, 0, 0, 0, 0, 0, 0, 0, 0, 0, 0, 0, 0, 0
   \              000000000000
   \              00000000    
   \   00006BD1   000000000000       DC8 0, 0, 0, 0, 0, 0, 0, 0, 0, 0, 0, 0, 0, 0, 0, 0
   \              000000000000
   \              00000000    
   \   00006BE1   000000000000       DC8 0, 0, 0, 0, 0, 0, 0, 0, 0, 0, 0, 0, 0, 0, 0, 0
   \              000000000000
   \              00000000    
   \   00006BF1   000000000000       DC8 0, 0, 0, 0, 0, 0, 0, 0, 0, 0, 0, 0, 0, 0, 0, 0
   \              000000000000
   \              00000000    
   \   00006C01   000000000000       DC8 0, 0, 0, 0, 0, 0, 0, 0, 0, 0, 0, 0, 0, 0, 0, 0
   \              000000000000
   \              00000000    
   \   00006C11   000000000000       DC8 0, 0, 0, 0, 0, 0, 0, 0, 0, 0, 0, 0, 0, 0, 0, 0
   \              000000000000
   \              00000000    
   \   00006C21   000000000000       DC8 0, 0, 0, 0, 0, 0, 0, 0, 0, 0, 0, 0, 0, 0, 0, 0
   \              000000000000
   \              00000000    
   \   00006C31   000000000000       DC8 0, 0, 0, 0, 0, 0, 0, 0, 0, 0, 0, 0, 0, 0, 0, 0
   \              000000000000
   \              00000000    
   \   00006C41   000000000000       DC8 0, 0, 0, 0, 0, 0, 0, 0, 0, 0, 0, 0, 0, 0, 0, 0
   \              000000000000
   \              00000000    
   \   00006C51   000000000000       DC8 0, 0, 0, 0, 0, 0, 0, 0, 0, 0, 0, 0, 0, 0, 0, 0
   \              000000000000
   \              00000000    
   \   00006C61   000000000000       DC8 0, 0, 0, 0, 0, 0, 0, 0, 0, 0, 0, 0, 0, 0, 0, 0
   \              000000000000
   \              00000000    
   \   00006C71   000000000000       DC8 0, 0, 0, 0, 0, 0, 0, 0, 0, 0, 0, 0, 0, 0, 0, 0
   \              000000000000
   \              00000000    
   \   00006C81   000000000000       DC8 0, 0, 0, 0, 0, 0, 0, 0, 0, 0, 0, 0, 0, 0, 0, 0
   \              000000000000
   \              00000000    
   \   00006C91   000000000000       DC8 0, 0, 0, 0, 0, 0, 0, 0, 0, 0, 0, 0, 0, 0, 0, 0
   \              000000000000
   \              00000000    
   \   00006CA1   000000000000       DC8 0, 0, 0, 0, 0, 0, 0, 0, 0, 0, 0, 0, 0, 0, 0, 0
   \              000000000000
   \              00000000    
   \   00006CB1   000000000000       DC8 0, 0, 0, 0, 0, 0, 0, 0, 0, 0, 0, 0, 0, 0, 0, 0
   \              000000000000
   \              00000000    
   \   00006CC1   000000000000       DC8 0, 0, 0, 0, 0, 0, 0, 0, 0, 0, 0, 0, 0, 0, 0, 0
   \              000000000000
   \              00000000    
   \   00006CD1   000000000000       DC8 0, 0, 0, 0, 0, 0, 0, 0, 0, 0, 0, 0, 0, 0, 0, 0
   \              000000000000
   \              00000000    
   \   00006CE1   000000000000       DC8 0, 0, 0, 0, 0, 0, 0, 0, 0, 0, 0, 0, 0, 0, 0, 0
   \              000000000000
   \              00000000    
   \   00006CF1   000000000000       DC8 0, 0, 0, 0, 0, 0, 0, 0, 0, 0, 0, 0, 0, 0, 0, 0
   \              000000000000
   \              00000000    
   \   00006D01   000000000000       DC8 0, 0, 0, 0, 0, 0, 0, 0, 0, 0, 0, 0, 0, 0, 0, 0
   \              000000000000
   \              00000000    
   \   00006D11   000000000000       DC8 0, 0, 0, 0, 0, 0, 0, 0, 0, 0, 0, 0, 0, 0, 0, 0
   \              000000000000
   \              00000000    
   \   00006D21   000000000000       DC8 0, 0, 0, 0, 0, 0, 0, 0, 0, 0, 0, 0, 0, 0, 0, 0
   \              000000000000
   \              00000000    
   \   00006D31   000000000000       DC8 0, 0, 0, 0, 0, 0, 0, 0, 0, 0, 0, 0, 0, 0, 0, 0
   \              000000000000
   \              00000000    
   \   00006D41   000000000000       DC8 0, 0, 0, 0, 0, 0, 0, 0, 0, 0, 0, 0, 0, 0, 0, 0
   \              000000000000
   \              00000000    
   \   00006D51   000000000000       DC8 0, 0, 0, 0, 0, 0, 0, 0, 0, 0, 0, 0, 0, 0, 0, 0
   \              000000000000
   \              00000000    
   \   00006D61   000000000000       DC8 0, 0, 0, 0, 0, 0, 0, 0, 0, 0, 0, 0, 0, 0, 0, 0
   \              000000000000
   \              00000000    
   \   00006D71   000000000000       DC8 0, 0, 0, 0, 0, 0, 0, 0, 0, 0, 0, 0, 0, 0, 0, 0
   \              000000000000
   \              00000000    
   \   00006D81   000000000000       DC8 0, 0, 0, 0, 0, 0, 0, 0, 0, 0, 0, 0, 0, 0, 0, 0
   \              000000000000
   \              00000000    
   \   00006D91   000000000000       DC8 0, 0, 0, 0, 0, 0, 0, 0, 0, 0, 0, 0, 0, 0, 0, 0
   \              000000000000
   \              00000000    
   \   00006DA1   000000000000       DC8 0, 0, 0, 0, 0, 0, 0, 0, 0, 0, 0, 0, 0, 0, 0, 0
   \              000000000000
   \              00000000    
   \   00006DB1   000000000000       DC8 0, 0, 0, 0, 0, 0, 0, 0, 0, 0, 0, 0, 0, 0, 0, 0
   \              000000000000
   \              00000000    
   \   00006DC1   000000000000       DC8 0, 0, 0, 0, 0, 0, 0, 0, 0, 0, 0, 0, 0, 0, 0, 0
   \              000000000000
   \              00000000    
   \   00006DD1   000000000000       DC8 0, 0, 0, 0, 0, 0, 0, 0, 0, 0, 0, 0, 0, 0, 0, 0
   \              000000000000
   \              00000000    
   \   00006DE1   000000000000       DC8 0, 0, 0, 0, 0, 0, 0, 0, 0, 0, 0, 0, 0, 0, 0, 0
   \              000000000000
   \              00000000    
   \   00006DF1   000000000000       DC8 0, 0, 0, 0, 0, 0, 0, 0, 0, 0, 0, 0, 0, 0, 0, 0
   \              000000000000
   \              00000000    
   \   00006E01   000000000000       DC8 0, 0, 0, 0, 0, 0, 0, 0, 0, 0, 0, 0, 0, 0, 0, 0
   \              000000000000
   \              00000000    
   \   00006E11   000000000000       DC8 0, 0, 0, 0, 0, 0, 0, 0, 0, 0, 0, 0, 0, 0, 0, 0
   \              000000000000
   \              00000000    
   \   00006E21   000000000000       DC8 0, 0, 0, 0, 0, 0, 0, 0, 0, 0, 0, 0, 0, 0, 0, 0
   \              000000000000
   \              00000000    
   \   00006E31   000000000000       DC8 0, 0, 0, 0, 0, 0, 0, 0, 0, 0, 0, 0, 0, 0, 0, 0
   \              000000000000
   \              00000000    
   \   00006E41   000000000000       DC8 0, 0, 0, 0, 0, 0, 0, 0, 0, 0, 0, 0, 0, 0, 0, 0
   \              000000000000
   \              00000000    
   \   00006E51   000000000000       DC8 0, 0, 0, 0, 0, 0, 0, 0, 0, 0, 0, 0, 0, 0, 0, 0
   \              000000000000
   \              00000000    
   \   00006E61   000000000000       DC8 0, 0, 0, 0, 0, 0, 0, 0, 0, 0, 0, 0, 0, 0, 0, 0
   \              000000000000
   \              00000000    
   \   00006E71   000000000000       DC8 0, 0, 0, 0, 0, 0, 0, 0, 0, 0, 0, 0, 0, 0, 0, 0
   \              000000000000
   \              00000000    
   \   00006E81   000000000000       DC8 0, 0, 0, 0, 0, 0, 0, 0, 0, 0, 0, 0, 0, 0, 0, 0
   \              000000000000
   \              00000000    
   \   00006E91   000000000000       DC8 0, 0, 0, 0, 0, 0, 0, 0, 0, 0, 0, 0, 0, 0, 0, 0
   \              000000000000
   \              00000000    
   \   00006EA1   000000000000       DC8 0, 0, 0, 0, 0, 0, 0, 0, 0, 0, 0, 0, 0, 0, 0, 0
   \              000000000000
   \              00000000    
   \   00006EB1   000000000000       DC8 0, 0, 0, 0, 0, 0, 0, 0, 0, 0, 0, 0, 0, 0, 0, 0
   \              000000000000
   \              00000000    
   \   00006EC1   000000000000       DC8 0, 0, 0, 0, 0, 0, 0, 0, 0, 0, 0, 0, 0, 0, 0, 0
   \              000000000000
   \              00000000    
   \   00006ED1   000000000000       DC8 0, 0, 0, 0, 0, 0, 0, 0, 0, 0, 0, 0, 0, 0, 0, 0
   \              000000000000
   \              00000000    
   \   00006EE1   000000000000       DC8 0, 0, 0, 0, 0, 0, 0, 0, 0, 0, 0, 0, 0, 0, 0, 0
   \              000000000000
   \              00000000    
   \   00006EF1   000000000000       DC8 0, 0, 0, 0, 0, 0, 0, 0, 0, 0, 0, 0, 0, 0, 0, 0
   \              000000000000
   \              00000000    
   \   00006F01   000000000000       DC8 0, 0, 0, 0, 0, 0, 0, 0, 0, 0, 0, 0, 0, 0, 0, 0
   \              000000000000
   \              00000000    
   \   00006F11   000000000000       DC8 0, 0, 0, 0, 0, 0, 0, 0, 0, 0, 0, 0, 0, 0, 0, 0
   \              000000000000
   \              00000000    
   \   00006F21   000000000000       DC8 0, 0, 0, 0, 0, 0, 0, 0, 0, 0, 0, 0, 0, 0, 0, 0
   \              000000000000
   \              00000000    
   \   00006F31   000000000000       DC8 0, 0, 0, 0, 0, 0, 0, 0, 0, 0, 0, 0, 0, 0, 0, 0
   \              000000000000
   \              00000000    
   \   00006F41   000000000000       DC8 0, 0, 0, 0, 0, 0, 0, 0, 0, 0, 0, 0, 0, 0, 0, 0
   \              000000000000
   \              00000000    
   \   00006F51   000000000000       DC8 0, 0, 0, 0, 0, 0, 0, 0, 0, 0, 0, 0, 0, 0, 0, 0
   \              000000000000
   \              00000000    
   \   00006F61   000000000000       DC8 0, 0, 0, 0, 0, 0, 0, 0, 0, 0, 0, 0, 0, 0, 0, 0
   \              000000000000
   \              00000000    
   \   00006F71   000000000000       DC8 0, 0, 0, 0, 0, 0, 0, 0, 0, 0, 0, 0, 0, 0, 0, 0
   \              000000000000
   \              00000000    
   \   00006F81   000000000000       DC8 0, 0, 0, 0, 0, 0, 0, 0, 0, 0, 0, 0, 0, 0, 0, 0
   \              000000000000
   \              00000000    
   \   00006F91   000000000000       DC8 0, 0, 0, 0, 0, 0, 0, 0, 0, 0, 0, 0, 0, 0, 0, 0
   \              000000000000
   \              00000000    
   \   00006FA1   000000000000       DC8 0, 0, 0, 0, 0, 0, 0, 0, 0, 0, 0, 0, 0, 0, 0, 0
   \              000000000000
   \              00000000    
   \   00006FB1   000000000000       DC8 0, 0, 0, 0, 0, 0, 0, 0, 0, 0, 0, 0, 0, 0, 0, 0
   \              000000000000
   \              00000000    
   \   00006FC1   000000000000       DC8 0, 0, 0, 0, 0, 0, 0, 0, 0, 0, 0, 0, 0, 0, 0, 0
   \              000000000000
   \              00000000    
   \   00006FD1   000000000000       DC8 0, 0, 0, 0, 0, 0, 0, 0, 0, 0, 0, 0, 0, 0, 0, 0
   \              000000000000
   \              00000000    
   \   00006FE1   000000000000       DC8 0, 0, 0, 0, 0, 0, 0, 0, 0, 0, 0, 0, 0, 0, 0, 0
   \              000000000000
   \              00000000    
   \   00006FF1   000000000000       DC8 0, 0, 0, 0, 0, 0, 0, 0, 0, 0, 0, 0, 0, 0, 0, 0
   \              000000000000
   \              00000000    
   \   00007001   000000000000       DC8 0, 0, 0, 0, 0, 0, 0, 0, 0, 0, 0, 0, 0, 0, 0, 0
   \              000000000000
   \              00000000    
   \   00007011   000000000000       DC8 0, 0, 0, 0, 0, 0, 0, 0, 0, 0, 0, 0, 0, 0, 0, 0
   \              000000000000
   \              00000000    
   \   00007021   000000000000       DC8 0, 0, 0, 0, 0, 0, 0, 0, 0, 0, 0, 0, 0, 0, 0, 0
   \              000000000000
   \              00000000    
   \   00007031   000000000000       DC8 0, 0, 0, 0, 0, 0, 0, 0, 0, 0, 0, 0, 0, 0, 0, 0
   \              000000000000
   \              00000000    
   \   00007041   000000000000       DC8 0, 0, 0, 0, 0, 0, 0, 0, 0, 0, 0, 0, 0, 0, 0, 0
   \              000000000000
   \              00000000    
   \   00007051   000000000000       DC8 0, 0, 0, 0, 0, 0, 0, 0, 0, 0, 0, 0, 0, 0, 0, 0
   \              000000000000
   \              00000000    
   \   00007061   000000000000       DC8 0, 0, 0, 0, 0, 0, 0, 0, 0, 0, 0, 0, 0, 0, 0, 0
   \              000000000000
   \              00000000    
   \   00007071   000000000000       DC8 0, 0, 0, 0, 0, 0, 0, 0, 0, 0, 0, 0, 0, 0, 0, 0
   \              000000000000
   \              00000000    
   \   00007081   000000000000       DC8 0, 0, 0, 0, 0, 0, 0, 0, 0, 0, 0, 0, 0, 0, 0, 0
   \              000000000000
   \              00000000    
   \   00007091   000000000000       DC8 0, 0, 0, 0, 0, 0, 0, 0, 0, 0, 0, 0, 0, 0, 0, 0
   \              000000000000
   \              00000000    
   \   000070A1   000000000000       DC8 0, 0, 0, 0, 0, 0, 0, 0, 0, 0, 0, 0, 0, 0, 0, 0
   \              000000000000
   \              00000000    
   \   000070B1   000000000000       DC8 0, 0, 0, 0, 0, 0, 0, 0, 0, 0, 0, 0, 0, 0, 0, 0
   \              000000000000
   \              00000000    
   \   000070C1   000000000000       DC8 0, 0, 0, 0, 0, 0, 0, 0, 0, 0, 0, 0, 0, 0, 0, 0
   \              000000000000
   \              00000000    
   \   000070D1   000000000000       DC8 0, 0, 0, 0, 0, 0, 0, 0, 0, 0, 0, 0, 0, 0, 0, 0
   \              000000000000
   \              00000000    
   \   000070E1   000000000000       DC8 0, 0, 0, 0, 0, 0, 0, 0, 0, 0, 0, 0, 0, 0, 0, 0
   \              000000000000
   \              00000000    
   \   000070F1   000000000000       DC8 0, 0, 0, 0, 0, 0, 0, 0, 0, 0, 0, 0, 0, 0, 0, 0
   \              000000000000
   \              00000000    
   \   00007101   000000000000       DC8 0, 0, 0, 0, 0, 0, 0, 0, 0, 0, 0, 0, 0, 0, 0, 0
   \              000000000000
   \              00000000    
   \   00007111   000000000000       DC8 0, 0, 0, 0, 0, 0, 0, 0, 0, 0, 0, 0, 0, 0, 0, 0
   \              000000000000
   \              00000000    
   \   00007121   000000000000       DC8 0, 0, 0, 0, 0, 0, 0, 0, 0, 0, 0, 0, 0, 0, 0, 0
   \              000000000000
   \              00000000    
   \   00007131   000000000000       DC8 0, 0, 0, 0, 0, 0, 0, 0, 0, 0, 0, 0, 0, 0, 0, 0
   \              000000000000
   \              00000000    
   \   00007141   000000000000       DC8 0, 0, 0, 0, 0, 0, 0, 0, 0, 0, 0, 0, 0, 0, 0, 0
   \              000000000000
   \              00000000    
   \   00007151   000000000000       DC8 0, 0, 0, 0, 0, 0, 0, 0, 0, 0, 0, 0, 0, 0, 0, 0
   \              000000000000
   \              00000000    
   \   00007161   000000000000       DC8 0, 0, 0, 0, 0, 0, 0, 0, 0, 0, 0, 0, 0, 0, 0, 0
   \              000000000000
   \              00000000    
   \   00007171   000000000000       DC8 0, 0, 0, 0, 0, 0, 0, 0, 0, 0, 0, 0, 0, 0, 0, 0
   \              000000000000
   \              00000000    
   \   00007181   000000000000       DC8 0, 0, 0, 0, 0, 0, 0, 0, 0, 0, 0, 0, 0, 0, 0, 0
   \              000000000000
   \              00000000    
   \   00007191   000000000000       DC8 0, 0, 0, 0, 0, 0, 0, 0, 0, 0, 0, 0, 0, 0, 0, 0
   \              000000000000
   \              00000000    
   \   000071A1   000000000000       DC8 0, 0, 0, 0, 0, 0, 0, 0, 0, 0, 0, 0, 0, 0, 0, 0
   \              000000000000
   \              00000000    
   \   000071B1   000000000000       DC8 0, 0, 0, 0, 0, 0, 0, 0, 0, 0, 0, 0, 0, 0, 0, 0
   \              000000000000
   \              00000000    
   \   000071C1   000000000000       DC8 0, 0, 0, 0, 0, 0, 0, 0, 0, 0, 0, 0, 0, 0, 0, 0
   \              000000000000
   \              00000000    
   \   000071D1   000000000000       DC8 0, 0, 0, 0, 0, 0, 0, 0, 0, 0, 0, 0, 0, 0, 0, 0
   \              000000000000
   \              00000000    
   \   000071E1   000000000000       DC8 0, 0, 0, 0, 0, 0, 0, 0, 0, 0, 0, 0, 0, 0, 0, 0
   \              000000000000
   \              00000000    
   \   000071F1   000000000000       DC8 0, 0, 0, 0, 0, 0, 0, 0, 0, 0, 0, 0, 0, 0, 0, 0
   \              000000000000
   \              00000000    
   \   00007201   000000000000       DC8 0, 0, 0, 0, 0, 0, 0, 0, 0, 0, 0, 0, 0, 0, 0, 0
   \              000000000000
   \              00000000    
   \   00007211   000000000000       DC8 0, 0, 0, 0, 0, 0, 0, 0, 0, 0, 0, 0, 0, 0, 0, 0
   \              000000000000
   \              00000000    
   \   00007221   000000000000       DC8 0, 0, 0, 0, 0, 0, 0, 0, 0, 0, 0, 0, 0, 0, 0, 0
   \              000000000000
   \              00000000    
   \   00007231   000000000000       DC8 0, 0, 0, 0, 0, 0, 0, 0, 0, 0, 0, 0, 0, 0, 0, 0
   \              000000000000
   \              00000000    
   \   00007241   000000000000       DC8 0, 0, 0, 0, 0, 0, 0, 0, 0, 0, 0, 0, 0, 0, 0, 0
   \              000000000000
   \              00000000    
   \   00007251   000000000000       DC8 0, 0, 0, 0, 0, 0, 0, 0, 0, 0, 0, 0, 0, 0, 0, 0
   \              000000000000
   \              00000000    
   \   00007261   000000000000       DC8 0, 0, 0, 0, 0, 0, 0, 0, 0, 0, 0, 0, 0, 0, 0, 0
   \              000000000000
   \              00000000    
   \   00007271   000000000000       DC8 0, 0, 0, 0, 0, 0, 0, 0, 0, 0, 0, 0, 0, 0, 0, 0
   \              000000000000
   \              00000000    
   \   00007281   000000000000       DC8 0, 0, 0, 0, 0, 0, 0, 0, 0, 0, 0, 0, 0, 0, 0, 0
   \              000000000000
   \              00000000    
   \   00007291   000000000000       DC8 0, 0, 0, 0, 0, 0, 0, 0, 0, 0, 0, 0, 0, 0, 0, 0
   \              000000000000
   \              00000000    
   \   000072A1   000000000000       DC8 0, 0, 0, 0, 0, 0, 0, 0, 0, 0, 0, 0, 0, 0, 0, 0
   \              000000000000
   \              00000000    
   \   000072B1   000000000000       DC8 0, 0, 0, 0, 0, 0, 0, 0, 0, 0, 0, 0, 0, 0, 0, 0
   \              000000000000
   \              00000000    
   \   000072C1   000000000000       DC8 0, 0, 0, 0, 0, 0, 0, 0, 0, 0, 0, 0, 0, 0, 0, 0
   \              000000000000
   \              00000000    
   \   000072D1   000000000000       DC8 0, 0, 0, 0, 0, 0, 0, 0, 0, 0, 0, 0, 0, 0, 0, 0
   \              000000000000
   \              00000000    
   \   000072E1   000000000000       DC8 0, 0, 0, 0, 0, 0, 0, 0, 0, 0, 0, 0, 0, 0, 0, 0
   \              000000000000
   \              00000000    
   \   000072F1   000000000000       DC8 0, 0, 0, 0, 0, 0, 0, 0, 0, 0, 0, 0, 0, 0, 0, 0
   \              000000000000
   \              00000000    
   \   00007301   000000000000       DC8 0, 0, 0, 0, 0, 0, 0, 0, 0, 0, 0, 0, 0, 0, 0, 0
   \              000000000000
   \              00000000    
   \   00007311   000000000000       DC8 0, 0, 0, 0, 0, 0, 0, 0, 0, 0, 0, 0, 0, 0, 0, 0
   \              000000000000
   \              00000000    
   \   00007321   000000000000       DC8 0, 0, 0, 0, 0, 0, 0, 0, 0, 0, 0, 0, 0, 0, 0, 0
   \              000000000000
   \              00000000    
   \   00007331   000000000000       DC8 0, 0, 0, 0, 0, 0, 0, 0, 0, 0, 0, 0, 0, 0, 0, 0
   \              000000000000
   \              00000000    
   \   00007341   000000000000       DC8 0, 0, 0, 0, 0, 0, 0, 0, 0, 0, 0, 0, 0, 0, 0, 0
   \              000000000000
   \              00000000    
   \   00007351   000000000000       DC8 0, 0, 0, 0, 0, 0, 0, 0, 0, 0, 0, 0, 0, 0, 0, 0
   \              000000000000
   \              00000000    
   \   00007361   000000000000       DC8 0, 0, 0, 0, 0, 0, 0, 0, 0, 0, 0, 0, 0, 0, 0, 0
   \              000000000000
   \              00000000    
   \   00007371   000000000000       DC8 0, 0, 0, 0, 0, 0, 0, 0, 0, 0, 0, 0, 0, 0, 0, 0
   \              000000000000
   \              00000000    
   \   00007381   000000000000       DC8 0, 0, 0, 0, 0, 0, 0, 0, 0, 0, 0, 0, 0, 0, 0, 0
   \              000000000000
   \              00000000    
   \   00007391   000000000000       DC8 0, 0, 0, 0, 0, 0, 0, 0, 0, 0, 0, 0, 0, 0, 0, 0
   \              000000000000
   \              00000000    
   \   000073A1   000000000000       DC8 0, 0, 0, 0, 0, 0, 0, 0, 0, 0, 0, 0, 0, 0, 0, 0
   \              000000000000
   \              00000000    
   \   000073B1   000000000000       DC8 0, 0, 0, 0, 0, 0, 0, 0, 0, 0, 0, 0, 0, 0, 0, 0
   \              000000000000
   \              00000000    
   \   000073C1   000000000000       DC8 0, 0, 0, 0, 0, 0, 0, 0, 0, 0, 0, 0, 0, 0, 0, 0
   \              000000000000
   \              00000000    
   \   000073D1   000000000000       DC8 0, 0, 0, 0, 0, 0, 0, 0, 0, 0, 0, 0, 0, 0, 0, 0
   \              000000000000
   \              00000000    
   \   000073E1   000000000000       DC8 0, 0, 0, 0, 0, 0, 0, 0, 0, 0, 0, 0, 0, 0, 0, 0
   \              000000000000
   \              00000000    
   \   000073F1   000000000000       DC8 0, 0, 0, 0, 0, 0, 0, 0, 0, 0, 0, 0, 0, 0, 0, 0
   \              000000000000
   \              00000000    
   \   00007401   000000000000       DC8 0, 0, 0, 0, 0, 0, 0, 0, 0, 0, 0, 0, 0, 0, 0, 0
   \              000000000000
   \              00000000    
   \   00007411   000000000000       DC8 0, 0, 0, 0, 0, 0, 0, 0, 0, 0, 0, 0, 0, 0, 0, 0
   \              000000000000
   \              00000000    
   \   00007421   000000000000       DC8 0, 0, 0, 0, 0, 0, 0, 0, 0, 0, 0, 0, 0, 0, 0, 0
   \              000000000000
   \              00000000    
   \   00007431   000000000000       DC8 0, 0, 0, 0, 0, 0, 0, 0, 0, 0, 0, 0, 0, 0, 0, 0
   \              000000000000
   \              00000000    
   \   00007441   000000000000       DC8 0, 0, 0, 0, 0, 0, 0, 0, 0, 0, 0, 0, 0, 0, 0, 0
   \              000000000000
   \              00000000    
   \   00007451   000000000000       DC8 0, 0, 0, 0, 0, 0, 0, 0, 0, 0, 0, 0, 0, 0, 0, 0
   \              000000000000
   \              00000000    
   \   00007461   000000000000       DC8 0, 0, 0, 0, 0, 0, 0, 0, 0, 0, 0, 0, 0, 0, 0, 0
   \              000000000000
   \              00000000    
   \   00007471   000000000000       DC8 0, 0, 0, 0, 0, 0, 0, 0, 0, 0, 0, 0, 0, 0, 0, 0
   \              000000000000
   \              00000000    
   \   00007481   000000000000       DC8 0, 0, 0, 0, 0, 0, 0, 0, 0, 0, 0, 0, 0, 0, 0, 0
   \              000000000000
   \              00000000    
   \   00007491   000000000000       DC8 0, 0, 0, 0, 0, 0, 0, 0, 0, 0, 0, 0, 0, 0, 0, 0
   \              000000000000
   \              00000000    
   \   000074A1   000000000000       DC8 0, 0, 0, 0, 0, 0, 0, 0, 0, 0, 0, 0, 0, 0, 0, 0
   \              000000000000
   \              00000000    
   \   000074B1   000000000000       DC8 0, 0, 0, 0, 0, 0, 0, 0, 0, 0, 0, 0, 0, 0, 0, 0
   \              000000000000
   \              00000000    
   \   000074C1   000000000000       DC8 0, 0, 0, 0, 0, 0, 0, 0, 0, 0, 0, 0, 0, 0, 0, 0
   \              000000000000
   \              00000000    
   \   000074D1   000000000000       DC8 0, 0, 0, 0, 0, 0, 0, 0, 0, 0, 0, 0, 0, 0, 0, 0
   \              000000000000
   \              00000000    
   \   000074E1   000000000000       DC8 0, 0, 0, 0, 0, 0, 0, 0, 0, 0, 0, 0, 0, 0, 0, 0
   \              000000000000
   \              00000000    
   \   000074F1   000000000000       DC8 0, 0, 0, 0, 0, 0, 0, 0, 0, 0, 0, 0, 0, 0, 0, 0
   \              000000000000
   \              00000000    
   \   00007501   000000000000       DC8 0, 0, 0, 0, 0, 0, 0, 0, 0, 0, 0, 0, 0, 0, 0, 0
   \              000000000000
   \              00000000    
   \   00007511   000000000000       DC8 0, 0, 0, 0, 0, 0, 0, 0, 0, 0, 0, 0, 0, 0, 0, 0
   \              000000000000
   \              00000000    
   \   00007521   000000000000       DC8 0, 0, 0, 0, 0, 0, 0, 0, 0, 0, 0, 0, 0, 0, 0
   \              000000000000
   \              000000      
    970          
    971          
    972          
    973          #ifdef _HardWare
    974          
    975          
    976          
    977          #else //BC6
    978          void __fastcall TForm1::Button6Click(TObject *Sender)
    979          {
    980            Send_Alpha();
    981          }
    982          //---------------------------------------------------------------------------
    983          
    984          
    985          void __fastcall TForm1::Admin1Click(TObject *Sender)
    986          {
    987            PasswordDlg1->ShowModal();
    988          }
    989          //---------------------------------------------------------------------------
    990          #endif
    991          
    992          
    993          
    994          
    995          

   Maximum stack usage in bytes:

     Function         .cstack
     --------         -------
     DelayUs               0
     PreProcess            0
     Send_Alpha            0
     Shift_Line1_left      0
     Shift_Line2_left      0
     UART1receive          0
     clr_buf               0
     memcpy                0
     memset                0
     rcl                   0
     rclG                  0
     scroll_leftBack       0
     shift_left            0
     shift_leftG           0
     shift_line_left       0
     shift_line_leftG      0


   Section sizes:

     Function/Label    Bytes
     --------------    -----
     MarkStrBoot           12
     udf                   12
     udfG                  12
     UartPreFrmTbl        256
     CommandMode            1
     UARTFRM                4
     Reserve                4
     UartDispMode           1
     UartLang               1
     UartID                 1
     UartDelFlg             1
     UpdateFlg              1
     UpgradeMode            1
     TxtChkSum              4
     UartChkSum             2
     RevBuffIndex           4
     RevCommand             1
     RevFlag                1
     Cmd1Length             4
     Cmd3Length             4
     LastCmd3Len            4
     Times                  4
     Htag                   1
     UartHtag               1
     Dtag                   1
     TestMode               1
     LNG                    1
     R_MCNT                 1
     Rec_Timer_cnt          4
     SYS_sec                4
     gWRecLen               4
     gUartRecTmp            1
     gWRecBuff           2500
     gWTxLen                4
     gWTxCnt                4
     gWTxBuff            1000
     RecLen                 4
     RecIndex               4
     MUS_flg                1
     LED_ON_flag            1
     MUS_timeout            1
     flg_ESC                1
     RTS_flg                1
     RTS_flg1               1
     LED_change             1
     LED_Com_count          1
     LED_display_mode       1
     LED_ASCii_buffer      12
     LED_display          160
     LED_displayG         160
     LED_buffer           160
     LED_bufferG          160
     Backup               160
     BackupG              160
     lenword                4
     Dest_Adr               4
     Sour_Adr               4
     Data_Len               4
     Dest_data              4
     Dest_char              1
     Disp_status            1
     FlashWriFlg            1
     RecProcessing          1
     SRAM_Program1        256
     SRAM_Program2        256
     RevBuff           120000
     FlashMark             12
     DispMode               1
     LEDFRM                 4
     PreFrameTable        256
     TxtMode                1
     BinMix                 1
     BinChkSum           1020
     LEDPage           103532
     LEDPage1           11240
     LastTxtBuff         2000
     TopIndex               4
     LastIndex              4
     CurIndex               4
     LedDly                 4
     SramChkLen             4
     RevTxtBuff          2000
     RevTxtColor         2000
     TmpTxtBuff          2000
     yy_offset              4
     RevTxtLen              2
     DftMsg                52
     dtm_flag               1
     tmd_flag               1
     tdy_flag               4
     lng_flag               1
     tfm_flag               1
     ddt_flag               1
     mgc_flag               1
     mau_flag               1
     dbz_flag               1
     ztm_flag               4
     zty_flag               1
     act_flag               4
     acc_flag               4
     tsm_flag               1
     crc_flag               1
     nst_flag               4
     timer_counter          4
     RTC_flag               1
     Flash_Write_fun        4
     dft_tm                 1
     seq_flag               1
     last_str_width         1
     TxtPage           136952
     last_time              1
     last_M1                1
     last_M2                1
     last_MM                1
     last_d1                1
     last_d2                1
     last_h1                1
     last_h2                1
     last_m1                1
     last_m2                1
     type_flag              1
     amm_flag               1
     dmm_flag               1
     tm_hr                  1
     tm_mm                  1
     tm_dd                  1
     tm_hh                  1
     tm_hr_pos              1
     tm_spc_pos             1
     Line2_Dly              4
     chg_flag               1
     mgn_flag               1
     ani_flag               1
     te_flag                1
     LED2_char_Length       1
     tm_strt                1
     pri_flag               1
     primsg_flag            1
     rlytm_flag             1
     rly_counter            1
     pri_bits               4
     mail_bits              4
     mdf_flag               1
     priclr_flag            1
     autoct_flag            1
     pact_flag              1
     nml_timer              4
     PTopIndex              4
     PLastIndex             4
     pricnt_flag            1
     pgc_flag               1
     TmpBuf               480
     TmpBufG              480
     Cmd_Str               20
     ask_flag               1
     ask_value              1
     ask_buf               32
     LRCM_flag              1
     LRCM_value             1
     tmhr_flag              1
     dot_flag               1
     last_y1                1
     last_y2                1
     tm_yy                  1
     tm_hr_pos1             1
     msgno                 36
     pmau_flag              1
     msgc_flag              1
     pmsgc_flag             1
     color_flag             1
     pcolor_flag            1
     capcl_flag            24
     msgcl_flag             1
     autocl                24
     Music_Busy             4
     memcpy                22
     memset                22
     EndFlag                4
     cfA                   16
     cf                     1
     cfAG                  16
     cfG                    1
     Backup_buf           160
     disp_buf             160
     LEDShape           10880
     SpdTm                  8
     SpdCn                  8
     DateStr               48
     EngDate               48
     MonthStr              12
     LED79PAT            3584
     Russian              576
     animate_img          128
     rndnum               256
     scroll_leftBack       80
     shift_left           122
     shift_leftG          122
     shift_line_left      132
     shift_line_leftG     132
     Shift_Line1_left      56
     Shift_Line2_left      56
     rcl                   36
     rclG                  36
     DelayUs               34
     clr_buf               40
     UART1receive         448
     Send_Alpha             2
     PreProcess           114
     ??DataTable20          4
     ??DataTable21          4
     ??DataTable31          4
     ??DataTable32          4
     ??DataTable33          4
     ??DataTable34          4
     ??DataTable35          4
     ??DataTable36          4
     ??DataTable38          4
     ??DataTable40          4
     ?<Constant "Jan">      4
     ?<Constant "Fev">      4
     ?<Constant "Mar">      4
     ?<Constant "Avr">      4
     ?<Constant "Mai">      4
     ?<Constant "Jun">      4
     ?<Constant "Jul">      4
     ?<Constant "Aou">      4
     ?<Constant "Sep">      4
     ?<Constant "Oct">      4
     ?<Constant "Nov">      4
     ?<Constant "Dec">      4
     ?<Constant "Feb">      4
     ?<Constant "Apr">      4
     ?<Constant "May">      4
     ?<Constant "Aug">      4
     ?<Constant {0}>    30000

 
  11 282 bytes in section .bss
   4 669 bytes in section .data
 386 677 bytes in section .noinit
  30 076 bytes in section .rodata
   1 494 bytes in section .text
     968 bytes in section FastDataRAM
 
   1 450 bytes of CODE  memory (+ 44 bytes shared)
  30 076 bytes of CONST memory
 403 596 bytes of DATA  memory

Errors: none
Warnings: none
